BL51 BANKED LINKER/LOCATER V6.22.2.0                                                    11/01/2022  15:49:49  PAGE 1


BL51 BANKED LINKER/LOCATER V6.22.2.0, INVOKED BY:
D:\KEIL_V5\C51\BIN\BL51.EXE .\Output\main.c.obj, .\Output\uart2.obj, .\Output\common.obj, .\Output\adc.obj, .\Output\gpi
>> o.obj, .\Output\i2c.obj, .\Output\uart3.obj, .\Output\uart.obj, .\Output\pwm0.obj, .\Output\pwm123.obj, .\Output\eepr
>> om.obj, .\Output\lcd.obj, .\Output\sys.obj, .\Output\STARTUP.obj, .\Output\ADC_USER.obj, .\Output\CO2.obj, .\Output\C
>> RC8_NRSC5.obj, .\Output\EEPROM_USER.obj, .\Output\KEY.obj, .\Output\LCD_User.obj, .\Output\LED.obj, .\Output\SHTC3.ob
>> j, .\Output\Timer0.obj, .\Output\UART1_USER.obj, .\Output\UART2_USER.obj, .\Output\UART3_USER.obj, .\Output\WDT.obj, 
>> .\Output\WIFI.obj, .\Output\CRC16.obj, .\Output\BC3602.obj, .\Output\BC3602_SPI.obj TO .\Output\Temp_Humi_CO2 PRINT (
>> .\LST\Temp_Humi_CO2.m51) RAMSIZE (256) DISABLEWARNING (16)


MEMORY MODEL: LARGE WITH FLOATING POINT ARITHMETIC


INPUT MODULES INCLUDED:
  .\Output\main.c.obj (MAIN_C)
  .\Output\uart2.obj (UART2)
  .\Output\common.obj (COMMON)
  .\Output\adc.obj (ADC)
  .\Output\gpio.obj (GPIO)
  .\Output\i2c.obj (I2C)
  .\Output\uart3.obj (UART3)
  .\Output\uart.obj (UART)
  .\Output\pwm0.obj (PWM0)
  .\Output\pwm123.obj (PWM123)
  .\Output\eeprom.obj (EEPROM)
  .\Output\lcd.obj (LCD)
  .\Output\sys.obj (SYS)
  .\Output\STARTUP.obj (?C_STARTUP)
  .\Output\ADC_USER.obj (ADC_USER)
  .\Output\CO2.obj (CO2)
  .\Output\CRC8_NRSC5.obj (CRC8_NRSC5)
  .\Output\EEPROM_USER.obj (EEPROM_USER)
  .\Output\KEY.obj (KEY)
  .\Output\LCD_User.obj (LCD_USER)
  .\Output\LED.obj (LED)
  .\Output\SHTC3.obj (SHTC3)
  .\Output\Timer0.obj (TIMER0)
  .\Output\UART1_USER.obj (UART1_USER)
  .\Output\UART2_USER.obj (UART2_USER)
  .\Output\UART3_USER.obj (UART3_USER)
  .\Output\WDT.obj (WDT)
  .\Output\WIFI.obj (WIFI)
  .\Output\CRC16.obj (CRC16)
  .\Output\BC3602.obj (BC3602)
  .\Output\BC3602_SPI.obj (BC3602_SPI)
  D:\KEIL_V5\C51\LIB\C51FPL.LIB (?C?FPADD)
  D:\KEIL_V5\C51\LIB\C51FPL.LIB (?C?FPMUL)
  D:\KEIL_V5\C51\LIB\C51FPL.LIB (?C?FPDIV)
  D:\KEIL_V5\C51\LIB\C51FPL.LIB (?C?FPCMP)
  D:\KEIL_V5\C51\LIB\C51FPL.LIB (?C?FCAST)
  D:\KEIL_V5\C51\LIB\C51FPL.LIB (?C?CASTF)
  D:\KEIL_V5\C51\LIB\C51FPL.LIB (?C?FPGETOPN)
  D:\KEIL_V5\C51\LIB\C51L.LIB (?C_INIT)
  D:\KEIL_V5\C51\LIB\C51L.LIB (?C?COPY)
  D:\KEIL_V5\C51\LIB\C51L.LIB (?C?CLDPTR)
  D:\KEIL_V5\C51\LIB\C51L.LIB (?C?CLDOPTR)
  D:\KEIL_V5\C51\LIB\C51L.LIB (?C?CILDPTR)
  D:\KEIL_V5\C51\LIB\C51L.LIB (?C?CSTPTR)
BL51 BANKED LINKER/LOCATER V6.22.2.0                                                  11/01/2022  15:49:49  PAGE 2


  D:\KEIL_V5\C51\LIB\C51L.LIB (?C?CSTOPTR)
  D:\KEIL_V5\C51\LIB\C51L.LIB (?C?IMUL)
  D:\KEIL_V5\C51\LIB\C51L.LIB (?C?UIDIV)
  D:\KEIL_V5\C51\LIB\C51L.LIB (?C?IILDX)
  D:\KEIL_V5\C51\LIB\C51L.LIB (?C?ILDIX)
  D:\KEIL_V5\C51\LIB\C51L.LIB (?C?LMUL)
  D:\KEIL_V5\C51\LIB\C51L.LIB (?C?ULDIV)
  D:\KEIL_V5\C51\LIB\C51L.LIB (?C?LNEG)
  D:\KEIL_V5\C51\LIB\C51L.LIB (?C?ULSHR)
  D:\KEIL_V5\C51\LIB\C51L.LIB (?C?LSTXDATA)
  D:\KEIL_V5\C51\LIB\C51L.LIB (?C?LSTKXDATA)
  D:\KEIL_V5\C51\LIB\C51L.LIB (?C?CCASE)
  D:\KEIL_V5\C51\LIB\C51L.LIB (?C?MEMSET)


LINK MAP OF MODULE:  .\Output\Temp_Humi_CO2 (MAIN_C)


            TYPE    BASE      LENGTH    RELOCATION   SEGMENT NAME
            -----------------------------------------------------

            * * * * * * *   D A T A   M E M O R Y   * * * * * * *
            REG     0000H     0008H     ABSOLUTE     "REG BANK 0"
            DATA    0008H     0003H     UNIT         ?DT?COMMON
                    000BH     0015H                  *** GAP ***
            BIT     0020H.0   0000H.4   UNIT         ?BI?UART
            BIT     0020H.4   0000H.1   UNIT         ?BI?UART2
            BIT     0020H.5   0000H.1   UNIT         ?BI?COMMON
            BIT     0020H.6   0000H.1   UNIT         ?BI?UART3
                    0020H.7   0000H.1                *** GAP ***
            IDATA   0021H     0001H     UNIT         ?STACK

            * * * * * * *  X D A T A   M E M O R Y  * * * * * * *
            XDATA   0000H     0200H     UNIT         ?XD?CRC16
            XDATA   0200H     0199H     UNIT         ?XD?EEPROM_USER
            XDATA   0399H     0125H     UNIT         ?XD?BC3602
            XDATA   04BEH     0117H     UNIT         ?XD?ADC_USER
            XDATA   05D5H     008AH     UNIT         ?XD?_WRITEDATATOONEPAGE?EEPROM
            XDATA   065FH     0037H     UNIT         ?XD?CO2
            XDATA   0696H     0026H     UNIT         ?XD?TIMER0
            XDATA   06BCH     0015H     UNIT         ?XD?SHTC3
            XDATA   06D1H     0015H     UNIT         _XDATA_GROUP_
            XDATA   06E6H     0014H     UNIT         ?XD?KEY
            XDATA   06FAH     0009H     UNIT         ?XD?_I2C_OPEN?I2C
            XDATA   0703H     0009H     UNIT         ?XD?_SIMPLEFIFO_TX_PROCESS?BC3602
            XDATA   070CH     0009H     UNIT         ?XD?_SIMPLEFIFO_RX_PROCESS?BC3602
            XDATA   0715H     0008H     UNIT         ?XD?_UART2_OPEN?UART2
            XDATA   071DH     0008H     UNIT         ?XD?_UART3_OPEN?UART3
            XDATA   0725H     0008H     UNIT         ?XD?_WRITE_DATAFLASH_ARRAY?EEPROM
            XDATA   072DH     0006H     UNIT         ?XD?_WRITE_DATAFLASH_BYTE?EEPROM
            XDATA   0733H     0005H     UNIT         ?XD?_UART2SENDDATA?UART2_USER
            XDATA   0738H     0005H     UNIT         ?XD?_WRITEFIFO?BC3602
            XDATA   073DH     0005H     UNIT         ?XD?_READFIFO?BC3602
            XDATA   0742H     0004H     UNIT         ?XD?GET_NTCVALU?ADC_USER
            XDATA   0746H     0004H     UNIT         ?XD?LCD_USER
            XDATA   074AH     0002H     UNIT         ?XD?_ADC_INITIALCONTINOUS?ADC
            XDATA   074CH     0002H     UNIT         ?XD?UART
BL51 BANKED LINKER/LOCATER V6.22.2.0                                                  11/01/2022  15:49:49  PAGE 3


            XDATA   074EH     0001H     UNIT         ?XD?UART2
            XDATA   074FH     0001H     UNIT         ?XD?UART3
            XDATA   0750H     0001H     UNIT         ?XD?LED
            XDATA   0751H     0001H     UNIT         ?XD?_PUTCHAR?UART3_USER

            * * * * * * *   C O D E   M E M O R Y   * * * * * * *
            CODE    0000H     0003H     ABSOLUTE     
            CODE    0003H     0008H     UNIT         ?PR?_READ_APROM_BYTE?COMMON
            CODE    000BH     0003H     ABSOLUTE     
            CODE    000EH     0015H     UNIT         ?PR?_UART2_SEND_DATA?UART2
            CODE    0023H     0003H     ABSOLUTE     
            CODE    0026H     0015H     UNIT         ?PR?_SPIWRITEREGCMD?BC3602
            CODE    003BH     0003H     ABSOLUTE     
            CODE    003EH     003DH     UNIT         ?PR?_LCD_CURRENT_MODE?LCD
            CODE    007BH     0003H     ABSOLUTE     
            CODE    007EH     001DH     UNIT         ?PR?UART3_RECEIVE_DATA?UART3
            CODE    009BH     0003H     ABSOLUTE     
            CODE    009EH     0014H     UNIT         ?PR?_UART3_SEND_DATA?UART3
            CODE    00B2H     0001H     UNIT         ?PR?I2C_ERROR?SHTC3
            CODE    00B3H     0003H     ABSOLUTE     
            CODE    00B6H     07C8H     UNIT         ?C?LIB_CODE
            CODE    087EH     06B2H     UNIT         ?PR?BAT_POWERDISPLAY?ADC_USER
            CODE    0F30H     0582H     UNIT         ?PR?_LCD_DISPLAY_TEMPHUB?LCD_USER
            CODE    14B2H     049CH     UNIT         ?PR?_GET_TEMP_BAT?ADC_USER
            CODE    194EH     03C3H     UNIT         ?C_INITSEG
            CODE    1D11H     0344H     UNIT         ?PR?_GPIO_ENABLEINT?GPIO
            CODE    2055H     02E7H     UNIT         ?PR?GET_KEYVALUE?KEY
            CODE    233CH     02DAH     UNIT         ?PR?_ADC_OPEN?ADC
            CODE    2616H     02C2H     UNIT         ?PR?EEPROM_READDATAINIT?EEPROM_USER
            CODE    28D8H     02B0H     UNIT         ?PR?_RGB_COLOR?LED
            CODE    2B88H     02A3H     UNIT         ?PR?_WRITEDATATOONEPAGE?EEPROM
            CODE    2E2BH     0275H     UNIT         ?PR?_PWM0_CONFIGOUTPUTCHANNEL?PWM0
            CODE    30A0H     01F2H     UNIT         ?PR?GET_TEMPHUT?SHTC3
            CODE    3292H     01AAH     UNIT         ?PR?TIMER0_ISR?TIMER0
            CODE    343CH     0198H     UNIT         ?PR?_PWM123_CLOCKSOURCE?PWM123
            CODE    35D4H     0193H     UNIT         ?PR?KEYPROCESS?KEY
            CODE    3767H     018EH     UNIT         ?PR?GET_AVG_VALU_24H?EEPROM_USER
            CODE    38F5H     017DH     UNIT         ?PR?_UART_OPEN?UART
            CODE    3A72H     017DH     UNIT         ?PR?_EEPROM_WRITE_SENSORDATA?EEPROM_USER
            CODE    3BEFH     0179H     UNIT         ?PR?_WRITE_DATAFLASH_BYTE?EEPROM
            CODE    3D68H     0148H     UNIT         ?PR?_SHOWDIGIT?LCD_USER
            CODE    3EB0H     0148H     UNIT         ?PR?BC3602_CONFIG?BC3602
            CODE    3FF8H     013EH     UNIT         ?PR?_WRITE_DATAFLASH?EEPROM_USER
            CODE    4136H     013CH     UNIT         ?PR?TIME_PROCESS?TIMER0
            CODE    4272H     0125H     UNIT         ?PR?INIT_LCD?LCD_USER
            CODE    4397H     0120H     UNIT         ?PR?_FSYSSELECT?SYS
            CODE    44B7H     0120H     UNIT         ?PR?_DISPLAY_CO2?CO2
            CODE    45D7H     011CH     UNIT         ?PR?_I2C_READ?SHTC3
            CODE    46F3H     0113H     UNIT         ?PR?_PWM123_CONFIGOUTPUTCHANNEL?PWM123
            CODE    4806H     0111H     UNIT         ?PR?_ADC_RUN?ADC_USER
            CODE    4917H     00EBH     UNIT         ?PR?_ADC_VREF_SET?ADC
            CODE    4A02H     00E8H     UNIT         ?PR?_SIMPLEFIFO_RX_PROCESS?BC3602
            CODE    4AEAH     00D5H     UNIT         ?PR?_GPIO_SETMODE?GPIO
            CODE    4BBFH     00D5H     UNIT         ?PR?_I2C_WRITE?SHTC3
            CODE    4C94H     00D3H     UNIT         ?PR?LED_INIT?LED
            CODE    4D67H     00C1H     UNIT         ?PR?_WRITE_DATAFLASH_ARRAY?EEPROM
            CODE    4E28H     00BFH     UNIT         ?PR?_SIMPLEFIFO_TX_PROCESS?BC3602
BL51 BANKED LINKER/LOCATER V6.22.2.0                                                  11/01/2022  15:49:49  PAGE 4


            CODE    4EE7H     00BDH     UNIT         ?PR?_CLOCKENABLE?SYS
            CODE    4FA4H     00B4H     UNIT         ?PR?_UART3_OPEN?UART3
            CODE    5058H     00B3H     UNIT         ?PR?RFSETDRPRAM?BC3602
            CODE    510BH     00AFH     UNIT         ?PR?LED_BUZ?LED
            CODE    51BAH     00AEH     UNIT         ?PR?_UART2_OPEN?UART2
            CODE    5268H     00ABH     UNIT         ?PR?UART1_ISR?CO2
            CODE    5313H     009BH     UNIT         ?PR?_GPIO_PULL_DISABLE?GPIO
            CODE    53AEH     009AH     UNIT         ?C_C51STARTUP
            CODE    5448H     0096H     UNIT         ?PR?RECIEVE_DATA_ANALYSIS?CO2
            CODE    54DEH     0087H     UNIT         ?PR?_GPIO_PULL_ENABLE?GPIO
            CODE    5565H     0084H     UNIT         ?PR?_CLOCKDISABLE?SYS
            CODE    55E9H     007DH     UNIT         ?PR?_I2C_READ_PROCESS?SHTC3
            CODE    5666H     007CH     UNIT         ?PR?RF_FINISHED_PROCESS?BC3602
            CODE    56E2H     007AH     UNIT         ?PR?_KEY_BC3602?BC3602
            CODE    575CH     0078H     UNIT         ?PR?GET_MAX_VALU_24H?EEPROM_USER
            CODE    57D4H     0077H     UNIT         ?PR?READ_BANDGAP?ADC
            CODE    584BH     0073H     UNIT         ?PR?ADC_INIT?ADC_USER
            CODE    58BEH     006EH     UNIT         ?PR?_PWM0_CLOCKSOURCE?PWM0
            CODE    592CH     006EH     UNIT         ?PR?_PWM1_CLOCKSOURCE?PWM0
            CODE    599AH     006DH     UNIT         ?PR?GET_NTCVALU?ADC_USER
            CODE    5A07H     006AH     UNIT         ?PR?_I2C_OPEN?I2C
            CODE    5A71H     0069H     UNIT         ?PR?RF_INIT?BC3602
            CODE    5ADAH     0068H     UNIT         ?PR?_READ_DATAFLASH_ARRAY?EEPROM
            CODE    5B42H     0063H     UNIT         ?PR?_ADC_ENABLEHWTRIGGER?ADC
            CODE    5BA5H     005FH     UNIT         ?PR?_I2C_WRITE_PROCESS?SHTC3
            CODE    5C04H     005CH     UNIT         ?PR?_PWM0_DEADZONEENABLE?PWM0
            CODE    5C60H     005CH     UNIT         ?PR?FSYSSWITCHERROR?SYS
            CODE    5CBCH     0059H     UNIT         ?PR?_CRC8_NRSC5?CRC8_NRSC5
            CODE    5D15H     0058H     UNIT         ?PR?INIT_I2C?SHTC3
            CODE    5D6DH     0057H     UNIT         ?PR?_I2C_SETSLAVEADDRMASK?I2C
            CODE    5DC4H     0057H     UNIT         ?PR?GET_CO2_VERSIONNUM?CO2
            CODE    5E1BH     0056H     UNIT         ?PR?BC3602_RF_PROCESS?BC3602
            CODE    5E71H     0054H     UNIT         ?PR?GET_CO2VALU?CO2
            CODE    5EC5H     0052H     UNIT         ?PR?_CRC16MODBUS?CRC16
            CODE    5F17H     0051H     UNIT         ?PR?_CLOCKSWITCH?SYS
            CODE    5F68H     004FH     UNIT         ?PR?RFWRITEFREQ?BC3602
            CODE    5FB7H     004FH     UNIT         ?PR?_WRITEFIFO?BC3602
            CODE    6006H     004FH     UNIT         ?PR?_READFIFO?BC3602
            CODE    6055H     004BH     UNIT         ?PR?_LCD_OPEN?LCD
            CODE    60A0H     0048H     UNIT         ?PR?_RFWRITEBUF?BC3602
            CODE    60E8H     0046H     UNIT         ?PR?INIT_UART1?UART1_USER
            CODE    612EH     0042H     UNIT         ?PR?INIT_UART2?UART2_USER
            CODE    6170H     003FH     UNIT         ?PR?_UART1SENDDATA?UART1_USER
            CODE    61AFH     003FH     UNIT         ?PR?_UART2SENDDATA?UART2_USER
            CODE    61EEH     003EH     UNIT         ?PR?WDT_INIT?WDT
            CODE    622CH     003CH     UNIT         ?PR?_LCD_SETALLPIXELS?LCD
            CODE    6268H     003AH     UNIT         ?PR?INIT_UART3?UART3_USER
            CODE    62A2H     0037H     UNIT         ?PR?_LED_FLASH?LED
            CODE    62D9H     0036H     UNIT         ?PR?RESETLVRF?BC3602
            CODE    630FH     0035H     UNIT         ?PR?FEED_WDT?WDT
            CODE    6344H     0035H     UNIT         ?PR?RFWRITESYNCWORD?BC3602
            CODE    6379H     0035H     UNIT         ?PR?_SPIWRITE?BC3602_SPI
            CODE    63AEH     0034H     UNIT         ?PR?SPIREAD?BC3602_SPI
            CODE    63E2H     0032H     UNIT         ?PR?MAIN?MAIN_C
            CODE    6414H     0031H     UNIT         ?PR?ENABLE_UART0_VCOM_PRINTF?UART
            CODE    6445H     002FH     UNIT         ?PR?RFCALIBRATION?BC3602
            CODE    6474H     002FH     UNIT         ?PR?LIRCCALIBRATION?BC3602
BL51 BANKED LINKER/LOCATER V6.22.2.0                                                  11/01/2022  15:49:49  PAGE 5


            CODE    64A3H     002FH     UNIT         ?PR?PININTERRUPT_ISR?BC3602
            CODE    64D2H     002EH     UNIT         ?PR?_ADC_INTERRUPT?ADC
            CODE    6500H     002DH     UNIT         ?PR?_ADC_INITIALCONTINOUS?ADC
            CODE    652DH     002DH     UNIT         ?PR?_UART_INTERRUPT_ENABLE?UART
            CODE    655AH     002DH     UNIT         ?PR?INIT_KEYPORT?KEY
            CODE    6587H     002BH     UNIT         ?PR?_LCD_INTERRUPT_INITIAL?LCD
            CODE    65B2H     0029H     UNIT         ?PR?_SET_RFSDIO_DIR?BC3602_SPI
            CODE    65DBH     0027H     UNIT         ?PR?_LCD_SETONEPIXEL?LCD
            CODE    6602H     0025H     UNIT         ?PR?_GET_CS?CO2
            CODE    6627H     0024H     UNIT         ?PR?IS_IIC_OVERTIME?SHTC3
            CODE    664BH     0023H     UNIT         ?PR?GET_NTC_TEMP?ADC_USER
            CODE    666EH     0021H     UNIT         ?PR?_UART_SEND_DATA?UART
            CODE    668FH     0020H     UNIT         ?PR?_LCD_CLOCK_SETTING?LCD
            CODE    66AFH     0020H     UNIT         ?PR?_LCD_POWERDOWN_DISPLAY?LCD
            CODE    66CFH     0020H     UNIT         ?PR?_RFSETPOWER?BC3602
            CODE    66EFH     001FH     UNIT         ?PR?UART0_ISR?UART
            CODE    670EH     001EH     UNIT         ?PR?_UART_RECEIVE_DATA?UART
            CODE    672CH     001EH     UNIT         ?PR?BC3602_SPI_IOCONFIG?BC3602_SPI
            CODE    674AH     001CH     UNIT         ?PR?SMC1_ISR?UART3
            CODE    6766H     001CH     UNIT         ?PR?TIMER0_INIT?TIMER0
            CODE    6782H     001BH     UNIT         ?PR?_ADC_SAMPLINGTIME?ADC
            CODE    679DH     001AH     UNIT         ?PR?SMC0_ISR?UART2
            CODE    67B7H     0019H     UNIT         ?PR?_DATA_PROCESS?BC3602
            CODE    67D0H     0018H     UNIT         ?PR?_I2C_ENABLEINT?I2C
            CODE    67E8H     0018H     UNIT         ?PR?_I2C_DISABLEINT?I2C
            CODE    6800H     0017H     UNIT         ?PR?SW_RESET?SYS
            CODE    6817H     0016H     UNIT         ?PR?RFGETCLRRFIRQ?BC3602
            CODE    682DH     0013H     UNIT         ?PR?_I2C_GETSTATUS?I2C
            CODE    6840H     0013H     UNIT         ?PR?_I2C_SLAVE_ADDRESS_MASK_DISABLE?I2C
            CODE    6853H     0012H     UNIT         ?PR?_I2C_CLOSE?I2C
            CODE    6865H     0012H     UNIT         ?PR?_I2C_ENABLETIMEOUT?I2C
            CODE    6877H     0012H     UNIT         ?PR?_I2C_DISABLETIMEOUT?I2C
            CODE    6889H     0012H     UNIT         ?PR?_I2C_CLEARTIMEOUTFLAG?I2C
            CODE    689BH     0011H     UNIT         ?PR?UART2_RECEIVE_ONE_BYTE?UART2
            CODE    68ACH     0011H     UNIT         ?PR?_I2C_SLAVE_ADDRESS_MASK_ENABLE?I2C
            CODE    68BDH     0011H     UNIT         ?PR?PWM0_DEADZONE_ALL_DISABLE?PWM0
            CODE    68CEH     0011H     UNIT         ?PR?RFXTALREADY?BC3602
            CODE    68DFH     000FH     UNIT         ?PR?_LCD_BLINK?LCD
            CODE    68EEH     000EH     UNIT         ?PR?_PUTCHAR?UART3_USER
            CODE    68FCH     000DH     UNIT         ?PR?GET_MAX_VALU_CO2_24H?EEPROM_USER
            CODE    6909H     000DH     UNIT         ?PR?GET_AVG_VALU_CO2_24H?EEPROM_USER
            CODE    6916H     000CH     UNIT         ?PR?CO2_INIT?CO2
            CODE    6922H     000CH     UNIT         ?PR?INIT_WIFI?WIFI
            CODE    692EH     000BH     UNIT         ?PR?_SPIREADREGCMD?BC3602
            CODE    6939H     000AH     UNIT         ?PR?LCD_ENABLE?LCD
            CODE    6943H     0009H     UNIT         ?PR?GET_NTC_INIT?ADC_USER
            CODE    694CH     0009H     UNIT         ?PR?GET_CO2VALUE?CO2
            CODE    6955H     0009H     UNIT         ?PR?GET_TEMPVALUE?SHTC3
            CODE    695EH     0009H     UNIT         ?PR?GET_HUBVALUE?SHTC3
            CODE    6967H     0009H     UNIT         ?PR?GET_NTCTEMP?TIMER0
            CODE    6970H     0008H     UNIT         ?PR?_SPIWRITESTROBECMD?BC3602
            CODE    6978H     0007H     UNIT         ?PR?ADC_CLOSE?ADC
            CODE    697FH     0007H     UNIT         ?PR?ADC_DISABLEHWTRIGGER?ADC
            CODE    6986H     0007H     UNIT         ?PR?PWM0_RUN?PWM0
            CODE    698DH     0007H     UNIT         ?PR?PWM0_STOP?PWM0
            CODE    6994H     0007H     UNIT         ?PR?LCD_DISABLE?LCD
            CODE    699BH     0007H     UNIT         ?PR?SET_TEMPPOSITIVE?SHTC3
BL51 BANKED LINKER/LOCATER V6.22.2.0                                                  11/01/2022  15:49:49  PAGE 6


            CODE    69A2H     0006H     UNIT         ?PR?GET_LIGHT_STA?KEY
            CODE    69A8H     0006H     UNIT         ?PR?GET_BELL_STA?KEY
            CODE    69AEH     0006H     UNIT         ?PR?GET_UNIT_STA?KEY
            CODE    69B4H     0006H     UNIT         ?PR?GET_COLOR_STA?KEY
            CODE    69BAH     0006H     UNIT         ?PR?GET_CO2DISMOD?KEY
            CODE    69C0H     0006H     UNIT         ?PR?GET_WIFI_KEY_STA?KEY
            CODE    69C6H     0006H     UNIT         ?PR?LCD_DISPLAY?LCD_USER
            CODE    69CCH     0006H     UNIT         ?PR?INIT_SHTC3?SHTC3
            CODE    69D2H     0006H     UNIT         ?PR?GET_TEMPPOSITIVE?SHTC3
            CODE    69D8H     0006H     UNIT         ?PR?GET_TEMPHUTSTARTFLAG?TIMER0
            CODE    69DEH     0006H     UNIT         ?PR?CLR__TEMPHUTSTARTFLAG?TIMER0
            CODE    69E4H     0006H     UNIT         ?PR?GET_SAVEADDR?TIMER0
            CODE    69EAH     0006H     UNIT         ?PR?GET_ONECIRCLESAVEFLAG?TIMER0
            CODE    69F0H     0006H     UNIT         ?PR?_SET_ONECIRCLE_FLAG?TIMER0
            CODE    69F6H     0006H     UNIT         ?PR?_SET_SAVE_ADDRP?TIMER0
            CODE    69FCH     0006H     UNIT         ?PR?GET_TEMPHUB_STA?TIMER0
            CODE    6A02H     0006H     UNIT         ?PR?GET_RF_MODE?BC3602



OVERLAY MAP OF MODULE:   .\Output\Temp_Humi_CO2 (MAIN_C)


SEGMENT                                            XDATA_GROUP
  +--> CALLED SEGMENT                            START    LENGTH
----------------------------------------------------------------
?C_C51STARTUP                                    -----    -----
  +--> ?PR?MAIN?MAIN_C
  +--> ?C_INITSEG

?PR?MAIN?MAIN_C                                  -----    -----
  +--> ?PR?_FSYSSELECT?SYS
  +--> ?PR?INIT_UART1?UART1_USER
  +--> ?PR?TIMER0_INIT?TIMER0
  +--> ?PR?CO2_INIT?CO2
  +--> ?PR?LED_INIT?LED
  +--> ?PR?INIT_LCD?LCD_USER
  +--> ?PR?WDT_INIT?WDT
  +--> ?PR?INIT_I2C?SHTC3
  +--> ?PR?ADC_INIT?ADC_USER
  +--> ?PR?INIT_KEYPORT?KEY
  +--> ?PR?EEPROM_READDATAINIT?EEPROM_USER
  +--> ?PR?RF_INIT?BC3602
  +--> ?PR?FEED_WDT?WDT
  +--> ?PR?TIME_PROCESS?TIMER0

?PR?_FSYSSELECT?SYS                              -----    -----
  +--> ?PR?_CLOCKENABLE?SYS
  +--> ?PR?_CLOCKSWITCH?SYS
  +--> ?PR?FSYSSWITCHERROR?SYS

?PR?INIT_UART1?UART1_USER                        -----    -----
  +--> ?PR?_UART_OPEN?UART

?PR?_UART_OPEN?UART                              06D1H    0009H

?PR?CO2_INIT?CO2                                 -----    -----
BL51 BANKED LINKER/LOCATER V6.22.2.0                                                  11/01/2022  15:49:49  PAGE 7


  +--> ?PR?_GPIO_SETMODE?GPIO

?PR?_GPIO_SETMODE?GPIO                           06D8H    0001H

?PR?LED_INIT?LED                                 -----    -----
  +--> ?PR?_GPIO_SETMODE?GPIO
  +--> ?PR?_PWM123_CLOCKSOURCE?PWM123
  +--> ?PR?_PWM123_CONFIGOUTPUTCHANNEL?PWM123
  +--> ?PR?_PWM0_CLOCKSOURCE?PWM0
  +--> ?PR?_PWM0_CONFIGOUTPUTCHANNEL?PWM0
  +--> ?PR?PWM0_RUN?PWM0

?PR?_PWM123_CLOCKSOURCE?PWM123                   06D1H    0001H

?PR?_PWM123_CONFIGOUTPUTCHANNEL?PWM123           06D1H    0006H

?PR?_PWM0_CONFIGOUTPUTCHANNEL?PWM0               06D2H    0009H

?PR?INIT_LCD?LCD_USER                            -----    -----
  +--> ?PR?_LCD_CLOCK_SETTING?LCD
  +--> ?PR?_LCD_OPEN?LCD
  +--> ?PR?_LCD_CURRENT_MODE?LCD
  +--> ?PR?LCD_ENABLE?LCD
  +--> ?PR?_LCD_SETALLPIXELS?LCD

?PR?_LCD_OPEN?LCD                                06D1H    0005H
  +--> ?PR?LCD_DISABLE?LCD
  +--> ?PR?_LCD_SETALLPIXELS?LCD

?PR?INIT_I2C?SHTC3                               -----    -----
  +--> ?PR?_I2C_WRITE?SHTC3

?PR?_I2C_WRITE?SHTC3                             -----    -----
  +--> ?PR?I2C_ERROR?SHTC3

?PR?ADC_INIT?ADC_USER                            -----    -----
  +--> ?PR?_ADC_OPEN?ADC
  +--> ?PR?_ADC_SAMPLINGTIME?ADC
  +--> ?PR?_ADC_VREF_SET?ADC
  +--> ?PR?_GPIO_SETMODE?GPIO

?PR?EEPROM_READDATAINIT?EEPROM_USER              06D1H    0005H
  +--> ?PR?_READ_DATAFLASH_ARRAY?EEPROM
  +--> ?PR?_CRC8_NRSC5?CRC8_NRSC5
  +--> ?PR?_CRC16MODBUS?CRC16
  +--> ?PR?_SET_ONECIRCLE_FLAG?TIMER0
  +--> ?PR?_SET_SAVE_ADDRP?TIMER0

?PR?_READ_DATAFLASH_ARRAY?EEPROM                 06D6H    0009H

?PR?_CRC8_NRSC5?CRC8_NRSC5                       06D6H    0005H

?PR?_CRC16MODBUS?CRC16                           06D6H    0004H

?PR?RF_INIT?BC3602                               -----    -----
  +--> ?PR?BC3602_SPI_IOCONFIG?BC3602_SPI
  +--> ?PR?_SPIWRITESTROBECMD?BC3602
BL51 BANKED LINKER/LOCATER V6.22.2.0                                                  11/01/2022  15:49:49  PAGE 8


  +--> ?PR?RESETLVRF?BC3602
  +--> ?PR?_GPIO_SETMODE?GPIO
  +--> ?PR?_GPIO_PULL_ENABLE?GPIO
  +--> ?PR?_GPIO_ENABLEINT?GPIO
  +--> ?PR?BC3602_CONFIG?BC3602
  +--> ?PR?RFWRITESYNCWORD?BC3602
  +--> ?PR?RFWRITEFREQ?BC3602
  +--> ?PR?RFSETDRPRAM?BC3602
  +--> ?PR?_RFSETPOWER?BC3602
  +--> ?PR?RFXTALREADY?BC3602
  +--> ?PR?RFCALIBRATION?BC3602
  +--> ?PR?LIRCCALIBRATION?BC3602
  +--> ?PR?RFGETCLRRFIRQ?BC3602

?PR?BC3602_SPI_IOCONFIG?BC3602_SPI               -----    -----
  +--> ?PR?_GPIO_SETMODE?GPIO
  +--> ?PR?_SET_RFSDIO_DIR?BC3602_SPI

?PR?_SET_RFSDIO_DIR?BC3602_SPI                   06D7H    0001H
  +--> ?PR?_GPIO_SETMODE?GPIO
  +--> ?PR?_GPIO_PULL_ENABLE?GPIO

?PR?_SPIWRITESTROBECMD?BC3602                    -----    -----
  +--> ?PR?_SPIWRITE?BC3602_SPI

?PR?_SPIWRITE?BC3602_SPI                         06D6H    0001H
  +--> ?PR?_SET_RFSDIO_DIR?BC3602_SPI

?PR?RESETLVRF?BC3602                             06D1H    0001H
  +--> ?PR?_SPIREADREGCMD?BC3602
  +--> ?PR?_SPIWRITEREGCMD?BC3602

?PR?_SPIREADREGCMD?BC3602                        -----    -----
  +--> ?PR?_SPIWRITE?BC3602_SPI
  +--> ?PR?SPIREAD?BC3602_SPI

?PR?SPIREAD?BC3602_SPI                           06D2H    0001H
  +--> ?PR?_SET_RFSDIO_DIR?BC3602_SPI

?PR?_SPIWRITEREGCMD?BC3602                       06D2H    0001H
  +--> ?PR?_SPIWRITE?BC3602_SPI

?PR?_GPIO_ENABLEINT?GPIO                         06D1H    0005H

?PR?BC3602_CONFIG?BC3602                         06D1H    0001H
  +--> ?PR?_SPIWRITEREGCMD?BC3602
  +--> ?PR?_SPIWRITESTROBECMD?BC3602

?PR?RFWRITESYNCWORD?BC3602                       -----    -----
  +--> ?PR?_RFWRITEBUF?BC3602

?PR?_RFWRITEBUF?BC3602                           06D1H    0005H
  +--> ?PR?_SPIWRITE?BC3602_SPI

?PR?RFWRITEFREQ?BC3602                           06D1H    0001H
  +--> ?PR?_SPIREADREGCMD?BC3602
  +--> ?PR?_SPIWRITEREGCMD?BC3602
BL51 BANKED LINKER/LOCATER V6.22.2.0                                                  11/01/2022  15:49:49  PAGE 9



?PR?RFSETDRPRAM?BC3602                           06D1H    0001H
  +--> ?PR?_SPIWRITESTROBECMD?BC3602
  +--> ?PR?_SPIWRITEREGCMD?BC3602

?PR?_RFSETPOWER?BC3602                           -----    -----
  +--> ?PR?_SPIWRITEREGCMD?BC3602

?PR?RFXTALREADY?BC3602                           -----    -----
  +--> ?PR?_SPIREADREGCMD?BC3602

?PR?RFCALIBRATION?BC3602                         06D1H    0001H
  +--> ?PR?_SPIREADREGCMD?BC3602
  +--> ?PR?_SPIWRITEREGCMD?BC3602

?PR?LIRCCALIBRATION?BC3602                       06D1H    0001H
  +--> ?PR?_SPIREADREGCMD?BC3602
  +--> ?PR?_SPIWRITEREGCMD?BC3602

?PR?RFGETCLRRFIRQ?BC3602                         06D1H    0001H
  +--> ?PR?_SPIREADREGCMD?BC3602
  +--> ?PR?_SPIWRITEREGCMD?BC3602

?PR?TIME_PROCESS?TIMER0                          -----    -----
  +--> ?PR?GET_TEMPHUT?SHTC3
  +--> ?PR?RECIEVE_DATA_ANALYSIS?CO2
  +--> ?PR?KEYPROCESS?KEY
  +--> ?PR?LED_BUZ?LED
  +--> ?PR?GET_COLOR_STA?KEY
  +--> ?PR?_RGB_COLOR?LED
  +--> ?PR?_GET_TEMP_BAT?ADC_USER
  +--> ?PR?_EEPROM_WRITE_SENSORDATA?EEPROM_USER
  +--> ?PR?GET_MAX_VALU_24H?EEPROM_USER
  +--> ?PR?GET_AVG_VALU_24H?EEPROM_USER
  +--> ?PR?GET_TEMPVALUE?SHTC3
  +--> ?PR?GET_HUBVALUE?SHTC3
  +--> ?PR?_LCD_DISPLAY_TEMPHUB?LCD_USER
  +--> ?PR?GET_NTC_TEMP?ADC_USER
  +--> ?PR?GET_CO2VALU?CO2

?PR?GET_TEMPHUT?SHTC3                            -----    -----
  +--> ?PR?_I2C_WRITE?SHTC3
  +--> ?PR?_I2C_READ?SHTC3
  +--> ?PR?_CRC8_NRSC5?CRC8_NRSC5
  +--> ?PR?CLR__TEMPHUTSTARTFLAG?TIMER0

?PR?_I2C_READ?SHTC3                              06D1H    0001H
  +--> ?PR?I2C_ERROR?SHTC3

?PR?RECIEVE_DATA_ANALYSIS?CO2                    -----    -----
  +--> ?PR?_GET_CS?CO2

?PR?KEYPROCESS?KEY                               -----    -----
  +--> ?PR?GET_KEYVALUE?KEY
  +--> ?PR?GET_RF_MODE?BC3602
  +--> ?PR?_KEY_BC3602?BC3602

BL51 BANKED LINKER/LOCATER V6.22.2.0                                                  11/01/2022  15:49:49  PAGE 10


?PR?_KEY_BC3602?BC3602                           -----    -----
  +--> ?PR?_DATA_PROCESS?BC3602

?PR?LED_BUZ?LED                                  -----    -----
  +--> ?PR?GET_LIGHT_STA?KEY
  +--> ?PR?GET_CO2VALUE?CO2
  +--> ?PR?GET_BELL_STA?KEY

?PR?_RGB_COLOR?LED                               06D1H    0001H
  +--> ?PR?PWM0_STOP?PWM0
  +--> ?PR?_PWM0_CONFIGOUTPUTCHANNEL?PWM0
  +--> ?PR?PWM0_RUN?PWM0

?PR?_GET_TEMP_BAT?ADC_USER                       06D1H    0002H
  +--> ?PR?_ADC_RUN?ADC_USER

?PR?_ADC_RUN?ADC_USER                            06D3H    0004H

?PR?_EEPROM_WRITE_SENSORDATA?EEPROM_USER         06D1H    0003H
  +--> ?PR?_CRC8_NRSC5?CRC8_NRSC5
  +--> ?PR?_WRITE_DATAFLASH?EEPROM_USER
  +--> ?PR?_READ_DATAFLASH_ARRAY?EEPROM
  +--> ?PR?GET_CO2VALUE?CO2
  +--> ?PR?GET_SAVEADDR?TIMER0
  +--> ?PR?GET_ONECIRCLESAVEFLAG?TIMER0
  +--> ?PR?_CRC16MODBUS?CRC16

?PR?_WRITE_DATAFLASH?EEPROM_USER                 06D4H    0008H

?PR?GET_MAX_VALU_24H?EEPROM_USER                 06D1H    0004H

?PR?GET_AVG_VALU_24H?EEPROM_USER                 06D1H    0009H

?PR?_LCD_DISPLAY_TEMPHUB?LCD_USER                06D1H    000EH
  +--> ?PR?_LCD_SETALLPIXELS?LCD
  +--> ?PR?GET_UNIT_STA?KEY
  +--> ?PR?GET_TEMPPOSITIVE?SHTC3
  +--> ?PR?GET_TEMPHUB_STA?TIMER0
  +--> ?PR?_SHOWDIGIT?LCD_USER
  +--> ?PR?_LCD_SETONEPIXEL?LCD
  +--> ?PR?GET_CO2DISMOD?KEY
  +--> ?PR?_DISPLAY_CO2?CO2
  +--> ?PR?GET_LIGHT_STA?KEY
  +--> ?PR?GET_BELL_STA?KEY
  +--> ?PR?BAT_POWERDISPLAY?ADC_USER

?PR?_SHOWDIGIT?LCD_USER                          06E5H    0001H

?PR?_DISPLAY_CO2?CO2                             06DFH    0006H
  +--> ?PR?_LCD_SETONEPIXEL?LCD
  +--> ?PR?GET_MAX_VALU_CO2_24H?EEPROM_USER
  +--> ?PR?GET_AVG_VALU_CO2_24H?EEPROM_USER
  +--> ?PR?_SHOWDIGIT?LCD_USER

?PR?BAT_POWERDISPLAY?ADC_USER                    -----    -----
  +--> ?PR?_LCD_SETONEPIXEL?LCD

BL51 BANKED LINKER/LOCATER V6.22.2.0                                                  11/01/2022  15:49:49  PAGE 11


?PR?GET_CO2VALU?CO2                              -----    -----
  +--> ?PR?_UART1SENDDATA?UART1_USER

?PR?_UART1SENDDATA?UART1_USER                    06D1H    0005H
  +--> ?PR?_UART_SEND_DATA?UART

*** NEW ROOT ***************************************************

?PR?TIMER0_ISR?TIMER0                            -----    -----
  +--> ?PR?IS_IIC_OVERTIME?SHTC3



SYMBOL TABLE OF MODULE:  .\Output\Temp_Humi_CO2 (MAIN_C)

  VALUE           TYPE          NAME
  ----------------------------------

  -------         MODULE        MAIN_C
  C:0000H         SYMBOL        _ICE_DUMMY_
  D:0080H         PUBLIC        P0
  D:0090H         PUBLIC        P1
  D:00A0H         PUBLIC        P2
  D:00B0H         PUBLIC        P3
  D:00D8H         PUBLIC        P4
  D:00A8H         PUBLIC        IE
  D:00B8H         PUBLIC        IP
  C:63E2H         PUBLIC        main
  D:0098H         PUBLIC        SCON
  D:0088H         PUBLIC        TCON
  D:00C0H         PUBLIC        I2C0CON
  D:00E8H         PUBLIC        I2C1CON
  D:00F8H         PUBLIC        S1CON
  D:00C8H         PUBLIC        T2CON
  D:00D0H         PUBLIC        PSW
  -------         PROC          MAIN
  C:63E2H         LINE#         7
  C:63E2H         LINE#         8
  C:63E2H         LINE#         9
  C:63E7H         LINE#         10
  C:63EAH         LINE#         13
  C:63EDH         LINE#         14
  C:63F0H         LINE#         15
  C:63F3H         LINE#         16
  C:63F6H         LINE#         17
  C:63F9H         LINE#         18
  C:63FCH         LINE#         19
  C:63FFH         LINE#         20
  C:6402H         LINE#         21
  C:6405H         LINE#         22
  C:6408H         LINE#         24
  C:640BH         LINE#         26
  C:640BH         LINE#         27
  C:640BH         LINE#         28
  C:640EH         LINE#         29
  C:6411H         LINE#         32
  -------         ENDPROC       MAIN
BL51 BANKED LINKER/LOCATER V6.22.2.0                                                  11/01/2022  15:49:49  PAGE 12


  -------         ENDMOD        MAIN_C

  -------         MODULE        UART2
  C:0000H         SYMBOL        _ICE_DUMMY_
  D:00DCH         PUBLIC        SC0ETURD1
  D:0080H         PUBLIC        P0
  D:0090H         PUBLIC        P1
  D:00A0H         PUBLIC        P2
  D:00B0H         PUBLIC        P3
  D:00D8H         PUBLIC        P4
  D:00D6H         PUBLIC        SC0CR0
  D:00D7H         PUBLIC        SC0CR1
  D:00A8H         PUBLIC        IE
  C:689BH         PUBLIC        UART2_Receive_One_Byte
  D:00B8H         PUBLIC        IP
  D:0098H         PUBLIC        SCON
  D:0088H         PUBLIC        TCON
  C:000EH         PUBLIC        _UART2_Send_Data
  D:0091H         PUBLIC        SFRS
  D:00DFH         PUBLIC        SC0TSR
  D:00C0H         PUBLIC        I2C0CON
  D:00E8H         PUBLIC        I2C1CON
  X:074EH         PUBLIC        uart2rvbuffer
  D:00D9H         PUBLIC        SC0DR
  C:679DH         PUBLIC        SMC0_ISR
  C:51BAH         PUBLIC        _UART2_Open
  D:00F8H         PUBLIC        S1CON
  D:00C8H         PUBLIC        T2CON
  B:0020H.4       PUBLIC        uart2rvflag
  D:00D0H         PUBLIC        PSW
  D:00DBH         PUBLIC        SC0ETURD0
  -------         PROC          SMC0_ISR
  C:679DH         LINE#         20
  C:67A3H         LINE#         22
  C:67A5H         LINE#         24
  C:67A8H         LINE#         25
  C:67AEH         LINE#         26
  C:67B0H         LINE#         27
  -------         ENDPROC       SMC0_ISR
  -------         PROC          _UART2_OPEN
  X:0715H         SYMBOL        u32SysClock
  X:0719H         SYMBOL        u32Baudrate
  C:51BAH         LINE#         36
  C:51C0H         LINE#         37
  C:51C0H         LINE#         38
  C:51C6H         LINE#         39
  C:51CBH         LINE#         40
  C:51D0H         LINE#         41
  C:51D5H         LINE#         42
  C:51DAH         LINE#         44
  C:5215H         LINE#         45
  C:5218H         LINE#         46
  C:5259H         LINE#         47
  C:525FH         LINE#         48
  C:5262H         LINE#         49
  C:5267H         LINE#         50
  -------         ENDPROC       _UART2_OPEN
BL51 BANKED LINKER/LOCATER V6.22.2.0                                                  11/01/2022  15:49:49  PAGE 13


  -------         PROC          UART2_RECEIVE_ONE_BYTE
  -------         DO            
  D:0007H         SYMBOL        c
  -------         ENDDO         
  C:689BH         LINE#         59
  C:689BH         LINE#         60
  C:689BH         LINE#         62
  C:68A1H         LINE#         63
  C:68A9H         LINE#         64
  C:68ABH         LINE#         65
  C:68ABH         LINE#         66
  -------         ENDPROC       UART2_RECEIVE_ONE_BYTE
  -------         PROC          _UART2_SEND_DATA
  D:0007H         SYMBOL        c
  C:000EH         LINE#         75
  C:000EH         LINE#         76
  C:000EH         LINE#         77
  C:0014H         LINE#         78
  C:0016H         LINE#         79
  C:001CH         LINE#         80
  C:0022H         LINE#         81
  -------         ENDPROC       _UART2_SEND_DATA
  -------         ENDMOD        UART2

  -------         MODULE        COMMON
  C:0000H         SYMBOL        _ICE_DUMMY_
  D:0080H         PUBLIC        P0
  D:0090H         PUBLIC        P1
  D:00A0H         PUBLIC        P2
  D:00B0H         PUBLIC        P3
  D:00D8H         PUBLIC        P4
  D:0008H         PUBLIC        BYTE_TMP
  D:00A8H         PUBLIC        IE
  D:0009H         PUBLIC        SFRS_TMP
  D:00B8H         PUBLIC        IP
  D:000AH         PUBLIC        TA_REG_TMP
  B:0020H.5       PUBLIC        BIT_TMP
  D:0098H         PUBLIC        SCON
  D:0088H         PUBLIC        TCON
  D:00C0H         PUBLIC        I2C0CON
  D:00E8H         PUBLIC        I2C1CON
  D:00F8H         PUBLIC        S1CON
  D:00C8H         PUBLIC        T2CON
  C:0003H         PUBLIC        _Read_APROM_BYTE
  D:00D0H         PUBLIC        PSW
  -------         PROC          _READ_APROM_BYTE
  D:0082H         SYMBOL        u16_addr
  -------         DO            
  D:0007H         SYMBOL        rdata
  -------         ENDDO         
  C:0003H         LINE#         17
  C:0007H         LINE#         18
  C:0007H         LINE#         20
  C:000AH         LINE#         21
  C:000AH         LINE#         22
  -------         ENDPROC       _READ_APROM_BYTE
  -------         ENDMOD        COMMON
BL51 BANKED LINKER/LOCATER V6.22.2.0                                                  11/01/2022  15:49:49  PAGE 14



  -------         MODULE        ADC
  C:0000H         SYMBOL        _ICE_DUMMY_
  D:00F4H         PUBLIC        P2MF54
  D:0080H         PUBLIC        P0
  D:00B5H         PUBLIC        P2M1
  D:0090H         PUBLIC        P1
  D:00C2H         PUBLIC        P3M1
  D:00B6H         PUBLIC        P2M2
  D:00A0H         PUBLIC        P2
  D:00C3H         PUBLIC        P3M2
  D:00B0H         PUBLIC        P3
  D:00F5H         PUBLIC        P2MF76
  D:0094H         PUBLIC        P6MF54
  D:00D8H         PUBLIC        P4
  D:0084H         PUBLIC        P6M1
  B:00A8H.7       PUBLIC        EA
  D:0085H         PUBLIC        P6M2
  D:0095H         PUBLIC        P6MF76
  D:00A8H         PUBLIC        IE
  D:00E4H         PUBLIC        ADCBAH
  D:00C7H         PUBLIC        TA
  D:00CBH         PUBLIC        ADCBAL
  D:00B8H         PUBLIC        IP
  C:6978H         PUBLIC        ADC_Close
  D:00CEH         PUBLIC        AINDIDS0
  D:00CEH         PUBLIC        AINDIDS1
  D:00E3H         PUBLIC        ADCDLY
  D:0098H         PUBLIC        SCON
  D:0088H         PUBLIC        TCON
  D:009FH         PUBLIC        CHPCON
  C:233CH         PUBLIC        _ADC_Open
  D:0091H         PUBLIC        SFRS
  C:6500H         PUBLIC        _ADC_InitialContinous
  D:00A4H         PUBLIC        IAPTRG
  C:4917H         PUBLIC        _ADC_Vref_Set
  D:00A9H         PUBLIC        VRFCON
  D:00C0H         PUBLIC        I2C0CON
  D:00E8H         PUBLIC        I2C1CON
  D:00A1H         PUBLIC        ADCCON0
  D:00E1H         PUBLIC        ADCCON1
  C:697FH         PUBLIC        ADC_DisableHWTrigger
  D:00E2H         PUBLIC        ADCCON2
  D:00A7H         PUBLIC        IAPAH
  D:00F8H         PUBLIC        S1CON
  D:00AEH         PUBLIC        IAPFD
  D:00C8H         PUBLIC        T2CON
  D:00A6H         PUBLIC        IAPAL
  D:00E5H         PUBLIC        ADCSN
  D:00AFH         PUBLIC        IAPCN
  C:57D4H         PUBLIC        READ_BANDGAP
  C:5B42H         PUBLIC        _ADC_EnableHWTrigger
  D:00E7H         PUBLIC        ADCSR
  D:00F2H         PUBLIC        P2MF10
  D:00F6H         PUBLIC        P3MF10
  D:00D0H         PUBLIC        PSW
  D:00F3H         PUBLIC        P2MF32
BL51 BANKED LINKER/LOCATER V6.22.2.0                                                  11/01/2022  15:49:49  PAGE 15


  C:6782H         PUBLIC        _ADC_SamplingTime
  D:00F7H         PUBLIC        P3MF32
  C:64D2H         PUBLIC        _ADC_Interrupt
  -------         PROC          _ADC_OPEN
  D:0006H         SYMBOL        u8ADCOpMode
  D:0005H         SYMBOL        u8ADCChMask
  C:233CH         LINE#         29
  C:233CH         LINE#         30
  C:233CH         LINE#         31
  C:2347H         LINE#         32
  C:2347H         LINE#         33
  C:234FH         LINE#         34
  C:2355H         LINE#         35
  C:2355H         LINE#         36
  C:2355H         LINE#         38
  C:2398H         LINE#         39
  C:2398H         LINE#         40
  C:23BEH         LINE#         41
  C:23E7H         LINE#         42
  C:2410H         LINE#         43
  C:2439H         LINE#         44
  C:2462H         LINE#         45
  C:248BH         LINE#         46
  C:24B4H         LINE#         47
  C:24DDH         LINE#         48
  C:2508H         LINE#         49
  C:2533H         LINE#         50
  C:255EH         LINE#         51
  C:2589H         LINE#         52
  C:25B3H         LINE#         53
  C:25DDH         LINE#         54
  C:25F5H         LINE#         55
  C:2603H         LINE#         56
  C:260FH         LINE#         57
  C:260FH         LINE#         58
  C:260FH         LINE#         59
  C:2615H         LINE#         61
  -------         ENDPROC       _ADC_OPEN
  -------         PROC          ADC_CLOSE
  C:6978H         LINE#         68
  C:6978H         LINE#         69
  C:6978H         LINE#         70
  C:697EH         LINE#         71
  -------         ENDPROC       ADC_CLOSE
  -------         PROC          _ADC_INITIALCONTINOUS
  X:074AH         SYMBOL        u16ADCRBase
  D:0005H         SYMBOL        u8ADCRLength
  D:0003H         SYMBOL        u8ADCSpeed
  C:6500H         LINE#         84
  C:6508H         LINE#         85
  C:6508H         LINE#         86
  C:650BH         LINE#         87
  C:650EH         LINE#         88
  C:6514H         LINE#         89
  C:6518H         LINE#         90
  C:651FH         LINE#         91
  C:651FH         LINE#         92
BL51 BANKED LINKER/LOCATER V6.22.2.0                                                  11/01/2022  15:49:49  PAGE 16


  C:6526H         LINE#         93
  C:652CH         LINE#         94
  C:652CH         LINE#         95
  C:652CH         LINE#         96
  -------         ENDPROC       _ADC_INITIALCONTINOUS
  -------         PROC          _ADC_SAMPLINGTIME
  D:0007H         SYMBOL        u8ADCDIV
  D:0005H         SYMBOL        u8ADCAQT
  C:6782H         LINE#         107
  C:6782H         LINE#         108
  C:6782H         LINE#         109
  C:6785H         LINE#         110
  C:6788H         LINE#         111
  C:6791H         LINE#         112
  C:6794H         LINE#         113
  C:679CH         LINE#         114
  -------         ENDPROC       _ADC_SAMPLINGTIME
  -------         PROC          _ADC_ENABLEHWTRIGGER
  D:0007H         SYMBOL        u8ADCSHWTource
  D:0005H         SYMBOL        u8ADCHWTParam
  D:0003H         SYMBOL        u8ADCHWTDelay
  C:5B42H         LINE#         138
  C:5B42H         LINE#         139
  C:5B42H         LINE#         140
  C:5B45H         LINE#         141
  C:5B53H         LINE#         142
  C:5B53H         LINE#         143
  C:5B58H         LINE#         144
  C:5B60H         LINE#         145
  C:5B68H         LINE#         146
  C:5B6EH         LINE#         147
  C:5B6EH         LINE#         148
  C:5B6EH         LINE#         149
  C:5B7CH         LINE#         150
  C:5B7CH         LINE#         151
  C:5B81H         LINE#         152
  C:5B89H         LINE#         153
  C:5B91H         LINE#         154
  C:5B97H         LINE#         155
  C:5B97H         LINE#         156
  C:5B97H         LINE#         157
  C:5B9BH         LINE#         158
  C:5BA1H         LINE#         159
  C:5BA4H         LINE#         160
  -------         ENDPROC       _ADC_ENABLEHWTRIGGER
  -------         PROC          ADC_DISABLEHWTRIGGER
  C:697FH         LINE#         162
  C:697FH         LINE#         163
  C:697FH         LINE#         164
  C:6985H         LINE#         165
  -------         ENDPROC       ADC_DISABLEHWTRIGGER
  -------         PROC          _ADC_INTERRUPT
  D:0007H         SYMBOL        u8ADCINT
  D:0005H         SYMBOL        u8ADCIntSource
  C:64D2H         LINE#         182
  C:64D2H         LINE#         183
  C:64D2H         LINE#         184
BL51 BANKED LINKER/LOCATER V6.22.2.0                                                  11/01/2022  15:49:49  PAGE 17


  C:64D5H         LINE#         185
  C:64DCH         LINE#         186
  C:64DCH         LINE#         187
  C:64DCH         LINE#         188
  C:64DFH         LINE#         189
  C:64E0H         LINE#         191
  C:64E0H         LINE#         192
  C:64ECH         LINE#         193
  C:64ECH         LINE#         194
  C:64F1H         LINE#         195
  C:64F9H         LINE#         196
  C:64FCH         LINE#         197
  C:64FCH         LINE#         198
  C:64FCH         LINE#         199
  C:64FFH         LINE#         200
  C:64FFH         LINE#         201
  C:64FFH         LINE#         202
  C:64FFH         LINE#         203
  -------         ENDPROC       _ADC_INTERRUPT
  -------         PROC          READ_BANDGAP
  -------         DO            
  D:0007H         SYMBOL        BandgapHigh
  D:0005H         SYMBOL        BandgapLow
  D:0006H         SYMBOL        u16bgvalue
  -------         ENDDO         
  C:57D4H         LINE#         211
  C:57D4H         LINE#         212
  C:57D4H         LINE#         215
  C:57EAH         LINE#         216
  C:57EDH         LINE#         217
  C:57F0H         LINE#         218
  C:57F2H         LINE#         219
  C:5807H         LINE#         220
  C:580CH         LINE#         221
  C:580FH         LINE#         222
  C:5825H         LINE#         223
  C:5827H         LINE#         224
  C:5834H         LINE#         225
  C:584AH         LINE#         226
  C:584AH         LINE#         227
  -------         ENDPROC       READ_BANDGAP
  -------         PROC          _ADC_VREF_SET
  D:0007H         SYMBOL        u8ADCVref
  D:0005H         SYMBOL        u8ADCVrefPreload
  D:0003H         SYMBOL        u8ADCVrefLevel
  C:4917H         LINE#         241
  C:4917H         LINE#         242
  C:4917H         LINE#         243
  C:491EH         LINE#         244
  C:491EH         LINE#         245
  C:491EH         LINE#         246
  C:4934H         LINE#         247
  C:4936H         LINE#         248
  C:4936H         LINE#         249
  C:494CH         LINE#         250
  C:494CH         LINE#         251
  C:494CH         LINE#         252
BL51 BANKED LINKER/LOCATER V6.22.2.0                                                  11/01/2022  15:49:49  PAGE 18


  C:494CH         LINE#         254
  C:4953H         LINE#         255
  C:4953H         LINE#         256
  C:4953H         LINE#         257
  C:4969H         LINE#         258
  C:496BH         LINE#         259
  C:496BH         LINE#         260
  C:4981H         LINE#         261
  C:4981H         LINE#         262
  C:4981H         LINE#         263
  C:4981H         LINE#         264
  C:4992H         LINE#         265
  C:4992H         LINE#         266
  C:4992H         LINE#         267
  C:49A5H         LINE#         268
  C:49A6H         LINE#         269
  C:49A6H         LINE#         270
  C:49BCH         LINE#         271
  C:49BDH         LINE#         272
  C:49BDH         LINE#         273
  C:49D3H         LINE#         274
  C:49D4H         LINE#         275
  C:49D4H         LINE#         276
  C:49EAH         LINE#         277
  C:49EBH         LINE#         278
  C:49EBH         LINE#         279
  C:4A01H         LINE#         280
  C:4A01H         LINE#         281
  C:4A01H         LINE#         283
  C:4A01H         LINE#         286
  -------         ENDPROC       _ADC_VREF_SET
  -------         ENDMOD        ADC

  -------         MODULE        GPIO
  C:0000H         SYMBOL        _ICE_DUMMY_
  D:00B1H         PUBLIC        P0M1
  D:00B3H         PUBLIC        P1M1
  D:00B2H         PUBLIC        P0M2
  D:0080H         PUBLIC        P0
  D:00B5H         PUBLIC        P2M1
  D:00B4H         PUBLIC        P1M2
  D:0090H         PUBLIC        P1
  D:00C2H         PUBLIC        P3M1
  D:00B6H         PUBLIC        P2M2
  D:00A0H         PUBLIC        P2
  D:00C3H         PUBLIC        P3M2
  D:00B9H         PUBLIC        P4M1
  D:00B0H         PUBLIC        P3
  D:00BDH         PUBLIC        P5M1
  D:00BAH         PUBLIC        P4M2
  D:00D8H         PUBLIC        P4
  D:009BH         PUBLIC        EIE0
  D:0084H         PUBLIC        P6M1
  D:00BEH         PUBLIC        P5M2
  D:0085H         PUBLIC        P6M2
  C:1D11H         PUBLIC        _GPIO_EnableInt
  D:00A8H         PUBLIC        IE
BL51 BANKED LINKER/LOCATER V6.22.2.0                                                  11/01/2022  15:49:49  PAGE 19


  D:00B8H         PUBLIC        IP
  D:008AH         PUBLIC        P0DW
  D:008BH         PUBLIC        P1DW
  D:008CH         PUBLIC        P2DW
  D:008DH         PUBLIC        P3DW
  D:008EH         PUBLIC        P4DW
  D:008FH         PUBLIC        P5DW
  D:008FH         PUBLIC        P6DW
  D:0092H         PUBLIC        P0UP
  D:0093H         PUBLIC        P1UP
  D:0094H         PUBLIC        P2UP
  D:0095H         PUBLIC        P3UP
  D:0096H         PUBLIC        P4UP
  D:0097H         PUBLIC        P5UP
  D:0097H         PUBLIC        P6UP
  D:0098H         PUBLIC        SCON
  D:0088H         PUBLIC        TCON
  D:0091H         PUBLIC        SFRS
  C:4AEAH         PUBLIC        _GPIO_SetMode
  C:5313H         PUBLIC        _GPIO_Pull_Disable
  D:00C0H         PUBLIC        I2C0CON
  D:00E8H         PUBLIC        I2C1CON
  C:54DEH         PUBLIC        _GPIO_Pull_Enable
  D:00F8H         PUBLIC        S1CON
  D:00C8H         PUBLIC        T2CON
  D:00A1H         PUBLIC        PIPS0
  D:00A2H         PUBLIC        PIPS1
  D:00A3H         PUBLIC        PIPS2
  D:00A4H         PUBLIC        PIPS3
  D:00A5H         PUBLIC        PIPS4
  D:00A6H         PUBLIC        PIPS5
  D:00A7H         PUBLIC        PIPS6
  D:00AFH         PUBLIC        PIPS7
  D:00E9H         PUBLIC        PICON
  D:00D0H         PUBLIC        PSW
  D:00EAH         PUBLIC        PINEN
  D:00EBH         PUBLIC        PIPEN
  -------         PROC          _GPIO_ENABLEINT
  D:0007H         SYMBOL        u8PIT
  D:0005H         SYMBOL        u8IntStatus
  D:0003H         SYMBOL        u8IntMode
  X:06D4H         SYMBOL        u8Port
  X:06D5H         SYMBOL        u8Bit
  C:1D11H         LINE#         21
  C:1D11H         LINE#         22
  C:1D11H         LINE#         23
  C:1D4FH         LINE#         24
  C:1D4FH         LINE#         25
  C:1D57H         LINE#         26
  C:1D5FH         LINE#         27
  C:1D67H         LINE#         28
  C:1D6FH         LINE#         29
  C:1D77H         LINE#         30
  C:1D7FH         LINE#         31
  C:1D87H         LINE#         32
  C:1D8FH         LINE#         34
  C:1D97H         LINE#         35
BL51 BANKED LINKER/LOCATER V6.22.2.0                                                  11/01/2022  15:49:49  PAGE 20


  C:1D9FH         LINE#         36
  C:1DA7H         LINE#         37
  C:1DAFH         LINE#         38
  C:1DB7H         LINE#         39
  C:1DBFH         LINE#         40
  C:1DC7H         LINE#         41
  C:1DCDH         LINE#         42
  C:1DCDH         LINE#         43
  C:1DCDH         LINE#         44
  C:1E23H         LINE#         45
  C:1E23H         LINE#         46
  C:1E32H         LINE#         47
  C:1E41H         LINE#         48
  C:1E50H         LINE#         49
  C:1E5FH         LINE#         50
  C:1E6EH         LINE#         51
  C:1E7DH         LINE#         52
  C:1E8CH         LINE#         53
  C:1E9BH         LINE#         55
  C:1EAAH         LINE#         56
  C:1EB9H         LINE#         57
  C:1EC8H         LINE#         58
  C:1ED7H         LINE#         59
  C:1EE6H         LINE#         60
  C:1EF5H         LINE#         61
  C:1F03H         LINE#         62
  C:1F11H         LINE#         64
  C:1F1FH         LINE#         65
  C:1F2DH         LINE#         66
  C:1F3BH         LINE#         67
  C:1F49H         LINE#         68
  C:1F57H         LINE#         69
  C:1F65H         LINE#         70
  C:1F73H         LINE#         71
  C:1F7FH         LINE#         73
  C:1F7FH         LINE#         74
  C:1F7FH         LINE#         75
  C:1FA7H         LINE#         76
  C:1FA7H         LINE#         77
  C:1FBDH         LINE#         78
  C:1FD2H         LINE#         79
  C:1FE7H         LINE#         80
  C:1FFCH         LINE#         81
  C:2011H         LINE#         82
  C:2026H         LINE#         83
  C:203BH         LINE#         84
  C:204EH         LINE#         85
  C:204EH         LINE#         86
  C:204EH         LINE#         87
  C:2054H         LINE#         88
  -------         ENDPROC       _GPIO_ENABLEINT
  -------         PROC          _GPIO_PULL_ENABLE
  D:0007H         SYMBOL        u8Port
  D:0005H         SYMBOL        u8PinMask
  D:0003H         SYMBOL        u8PullMode
  C:54DEH         LINE#         99
  C:54DEH         LINE#         100
BL51 BANKED LINKER/LOCATER V6.22.2.0                                                  11/01/2022  15:49:49  PAGE 21


  C:54DEH         LINE#         101
  C:54E1H         LINE#         102
  C:54E8H         LINE#         103
  C:54E8H         LINE#         104
  C:54E8H         LINE#         105
  C:550AH         LINE#         106
  C:550AH         LINE#         107
  C:550EH         LINE#         108
  C:5512H         LINE#         109
  C:5516H         LINE#         110
  C:551AH         LINE#         111
  C:551EH         LINE#         112
  C:5522H         LINE#         113
  C:5526H         LINE#         114
  C:5526H         LINE#         115
  C:5527H         LINE#         116
  C:5527H         LINE#         117
  C:5549H         LINE#         118
  C:5549H         LINE#         119
  C:554DH         LINE#         120
  C:5551H         LINE#         121
  C:5555H         LINE#         122
  C:5559H         LINE#         123
  C:555DH         LINE#         124
  C:5561H         LINE#         125
  C:5564H         LINE#         126
  C:5564H         LINE#         127
  C:5564H         LINE#         128
  C:5564H         LINE#         129
  -------         ENDPROC       _GPIO_PULL_ENABLE
  -------         PROC          _GPIO_PULL_DISABLE
  D:0007H         SYMBOL        u8Port
  D:0005H         SYMBOL        u8PinMask
  D:0003H         SYMBOL        u8PullMode
  C:5313H         LINE#         141
  C:5313H         LINE#         142
  C:5313H         LINE#         143
  C:5316H         LINE#         144
  C:5320H         LINE#         145
  C:5320H         LINE#         146
  C:5320H         LINE#         147
  C:5345H         LINE#         148
  C:5345H         LINE#         149
  C:534AH         LINE#         150
  C:534FH         LINE#         151
  C:5354H         LINE#         152
  C:5359H         LINE#         153
  C:535EH         LINE#         154
  C:5363H         LINE#         155
  C:5368H         LINE#         156
  C:5368H         LINE#         157
  C:5369H         LINE#         158
  C:5369H         LINE#         159
  C:538BH         LINE#         160
  C:538BH         LINE#         161
  C:5390H         LINE#         162
  C:5395H         LINE#         163
BL51 BANKED LINKER/LOCATER V6.22.2.0                                                  11/01/2022  15:49:49  PAGE 22


  C:539AH         LINE#         164
  C:539FH         LINE#         165
  C:53A4H         LINE#         166
  C:53A9H         LINE#         167
  C:53ADH         LINE#         168
  C:53ADH         LINE#         169
  C:53ADH         LINE#         170
  C:53ADH         LINE#         171
  -------         ENDPROC       _GPIO_PULL_DISABLE
  -------         PROC          _GPIO_SETMODE
  X:06D8H         SYMBOL        u8Port
  D:0001H         SYMBOL        u8PinMask
  D:0003H         SYMBOL        u8Mode
  -------         DO            
  D:0004H         SYMBOL        u8PnM1
  D:0006H         SYMBOL        u8PnM2
  -------         ENDDO         
  C:4AEAH         LINE#         183
  C:4AF1H         LINE#         184
  C:4AF1H         LINE#         187
  C:4AF4H         LINE#         188
  C:4B16H         LINE#         189
  C:4B16H         LINE#         190
  C:4B1CH         LINE#         191
  C:4B22H         LINE#         192
  C:4B28H         LINE#         193
  C:4B2EH         LINE#         194
  C:4B34H         LINE#         195
  C:4B3AH         LINE#         196
  C:4B3EH         LINE#         197
  C:4B3EH         LINE#         198
  C:4B4CH         LINE#         199
  C:4B4CH         LINE#         200
  C:4B4CH         LINE#         201
  C:4B51H         LINE#         202
  C:4B54H         LINE#         203
  C:4B56H         LINE#         204
  C:4B56H         LINE#         205
  C:4B5AH         LINE#         206
  C:4B5DH         LINE#         207
  C:4B5FH         LINE#         208
  C:4B5FH         LINE#         209
  C:4B62H         LINE#         210
  C:4B66H         LINE#         211
  C:4B68H         LINE#         212
  C:4B68H         LINE#         213
  C:4B6BH         LINE#         214
  C:4B6EH         LINE#         215
  C:4B6EH         LINE#         216
  C:4B6EH         LINE#         217
  C:4B93H         LINE#         218
  C:4B93H         LINE#         219
  C:4B99H         LINE#         220
  C:4B9FH         LINE#         221
  C:4BA5H         LINE#         222
  C:4BABH         LINE#         223
  C:4BB1H         LINE#         224
BL51 BANKED LINKER/LOCATER V6.22.2.0                                                  11/01/2022  15:49:49  PAGE 23


  C:4BB7H         LINE#         225
  C:4BBBH         LINE#         226
  C:4BBBH         LINE#         227
  C:4BBEH         LINE#         229
  -------         ENDPROC       _GPIO_SETMODE
  -------         ENDMOD        GPIO

  -------         MODULE        I2C
  C:0000H         SYMBOL        _ICE_DUMMY_
  D:0080H         PUBLIC        P0
  D:0090H         PUBLIC        P1
  D:00A0H         PUBLIC        P2
  D:00B0H         PUBLIC        P3
  D:00D8H         PUBLIC        P4
  D:009BH         PUBLIC        EIE0
  D:009CH         PUBLIC        EIE1
  C:67E8H         PUBLIC        _I2C_DisableInt
  D:00A8H         PUBLIC        IE
  C:67D0H         PUBLIC        _I2C_EnableInt
  C:6853H         PUBLIC        _I2C_Close
  D:00B8H         PUBLIC        IP
  C:68ACH         PUBLIC        _I2C_SLAVE_ADDRESS_MASK_ENABLE
  D:00BDH         PUBLIC        I2C0STAT
  D:00B4H         PUBLIC        I2C1STAT
  C:5A07H         PUBLIC        _I2C_Open
  D:0098H         PUBLIC        SCON
  D:0088H         PUBLIC        TCON
  D:00C1H         PUBLIC        I2C0ADDR0
  D:00A1H         PUBLIC        I2C0ADDR1
  D:00B2H         PUBLIC        I2C1ADDR0
  D:00A4H         PUBLIC        I2C1ADDR1
  D:00A2H         PUBLIC        I2C0ADDR2
  D:00A5H         PUBLIC        I2C1ADDR2
  D:00A3H         PUBLIC        I2C0ADDR3
  D:0091H         PUBLIC        SFRS
  D:00A6H         PUBLIC        I2C1ADDR3
  C:6877H         PUBLIC        _I2C_DisableTimeout
  C:682DH         PUBLIC        _I2C_GetStatus
  D:00BEH         PUBLIC        I2C0CLK
  D:00B5H         PUBLIC        I2C1CLK
  D:00C0H         PUBLIC        I2C0CON
  D:00E8H         PUBLIC        I2C1CON
  D:00BFH         PUBLIC        I2C0TOC
  C:6865H         PUBLIC        _I2C_EnableTimeout
  D:00B6H         PUBLIC        I2C1TOC
  C:5D6DH         PUBLIC        _I2C_SetSlaveAddrMask
  D:00CFH         PUBLIC        I2C0ADDRM
  D:00D7H         PUBLIC        I2C1ADDRM
  D:00F8H         PUBLIC        S1CON
  D:00C8H         PUBLIC        T2CON
  C:6840H         PUBLIC        _I2C_SLAVE_ADDRESS_MASK_DISABLE
  C:6889H         PUBLIC        _I2C_ClearTimeoutFlag
  D:00D0H         PUBLIC        PSW
  -------         PROC          _I2C_OPEN
  D:0007H         SYMBOL        u8I2CSel
  X:06FBH         SYMBOL        u32SYSCLK
  X:06FFH         SYMBOL        u32I2CCLK
BL51 BANKED LINKER/LOCATER V6.22.2.0                                                  11/01/2022  15:49:49  PAGE 24


  C:5A07H         LINE#         21
  C:5A07H         LINE#         22
  C:5A07H         LINE#         23
  C:5A0AH         LINE#         24
  C:5A11H         LINE#         25
  C:5A11H         LINE#         26
  C:5A41H         LINE#         27
  C:5A70H         LINE#         28
  C:5A70H         LINE#         29
  -------         ENDPROC       _I2C_OPEN
  -------         PROC          _I2C_CLOSE
  D:0007H         SYMBOL        u8I2CSel
  C:6853H         LINE#         36
  C:6853H         LINE#         37
  C:6853H         LINE#         38
  C:6856H         LINE#         39
  C:685DH         LINE#         40
  C:685DH         LINE#         41
  C:6861H         LINE#         42
  C:6864H         LINE#         43
  C:6864H         LINE#         44
  -------         ENDPROC       _I2C_CLOSE
  -------         PROC          _I2C_ENABLEINT
  D:0007H         SYMBOL        u8I2CSel
  C:67D0H         LINE#         51
  C:67D0H         LINE#         52
  C:67D0H         LINE#         53
  C:67D3H         LINE#         54
  C:67DAH         LINE#         55
  C:67DAH         LINE#         56
  C:67E1H         LINE#         57
  C:67E7H         LINE#         58
  C:67E7H         LINE#         59
  -------         ENDPROC       _I2C_ENABLEINT
  -------         PROC          _I2C_DISABLEINT
  D:0007H         SYMBOL        u8I2CSel
  C:67E8H         LINE#         66
  C:67E8H         LINE#         67
  C:67E8H         LINE#         68
  C:67EBH         LINE#         69
  C:67F2H         LINE#         70
  C:67F2H         LINE#         71
  C:67F9H         LINE#         72
  C:67FFH         LINE#         73
  C:67FFH         LINE#         74
  -------         ENDPROC       _I2C_DISABLEINT
  -------         PROC          _I2C_GETSTATUS
  D:0007H         SYMBOL        u8I2CSel
  -------         DO            
  D:0006H         SYMBOL        u8i2cstat
  -------         ENDDO         
  C:682DH         LINE#         82
  C:682DH         LINE#         83
  C:682DH         LINE#         85
  C:6830H         LINE#         86
  C:6837H         LINE#         87
  C:6837H         LINE#         88
BL51 BANKED LINKER/LOCATER V6.22.2.0                                                  11/01/2022  15:49:49  PAGE 25


  C:683BH         LINE#         89
  C:683DH         LINE#         90
  C:683DH         LINE#         91
  C:683FH         LINE#         92
  -------         ENDPROC       _I2C_GETSTATUS
  -------         PROC          _I2C_SETSLAVEADDRMASK
  D:0007H         SYMBOL        u8I2CSel
  D:0005H         SYMBOL        u8SlaveNo
  D:0003H         SYMBOL        u8SlaveAddrMask
  C:5D6DH         LINE#         104
  C:5D6DH         LINE#         105
  C:5D6DH         LINE#         106
  C:5D74H         LINE#         107
  C:5D74H         LINE#         108
  C:5D74H         LINE#         109
  C:5D82H         LINE#         110
  C:5D82H         LINE#         111
  C:5D89H         LINE#         112
  C:5D90H         LINE#         113
  C:5D97H         LINE#         114
  C:5D9CH         LINE#         115
  C:5D9CH         LINE#         116
  C:5D9CH         LINE#         117
  C:5DAAH         LINE#         118
  C:5DAAH         LINE#         119
  C:5DB0H         LINE#         120
  C:5DB6H         LINE#         121
  C:5DBCH         LINE#         122
  C:5DC3H         LINE#         123
  C:5DC3H         LINE#         124
  C:5DC3H         LINE#         125
  C:5DC3H         LINE#         126
  -------         ENDPROC       _I2C_SETSLAVEADDRMASK
  -------         PROC          _I2C_ENABLETIMEOUT
  D:0007H         SYMBOL        u8I2CSel
  C:6865H         LINE#         136
  C:6865H         LINE#         137
  C:6865H         LINE#         138
  C:6868H         LINE#         139
  C:686FH         LINE#         140
  C:686FH         LINE#         141
  C:6873H         LINE#         142
  C:6876H         LINE#         143
  C:6876H         LINE#         144
  -------         ENDPROC       _I2C_ENABLETIMEOUT
  -------         PROC          _I2C_DISABLETIMEOUT
  D:0007H         SYMBOL        u8I2CSel
  C:6877H         LINE#         153
  C:6877H         LINE#         154
  C:6877H         LINE#         155
  C:687AH         LINE#         156
  C:6881H         LINE#         157
  C:6881H         LINE#         158
  C:6885H         LINE#         159
  C:6888H         LINE#         160
  C:6888H         LINE#         161
  -------         ENDPROC       _I2C_DISABLETIMEOUT
BL51 BANKED LINKER/LOCATER V6.22.2.0                                                  11/01/2022  15:49:49  PAGE 26


  -------         PROC          _I2C_CLEARTIMEOUTFLAG
  D:0007H         SYMBOL        u8I2CSel
  C:6889H         LINE#         163
  C:6889H         LINE#         164
  C:6889H         LINE#         165
  C:688CH         LINE#         166
  C:6893H         LINE#         167
  C:6893H         LINE#         168
  C:6897H         LINE#         169
  C:689AH         LINE#         170
  C:689AH         LINE#         171
  C:689AH         LINE#         172
  -------         ENDPROC       _I2C_CLEARTIMEOUTFLAG
  -------         PROC          _I2C_SLAVE_ADDRESS_MASK_ENABLE
  D:0007H         SYMBOL        u8I2CSel
  D:0005H         SYMBOL        u8I2CAddMaskBit
  C:68ACH         LINE#         182
  C:68ACH         LINE#         183
  C:68ACH         LINE#         184
  C:68AFH         LINE#         185
  C:68B6H         LINE#         186
  C:68B6H         LINE#         187
  C:68B9H         LINE#         188
  C:68BCH         LINE#         189
  C:68BCH         LINE#         190
  C:68BCH         LINE#         191
  -------         ENDPROC       _I2C_SLAVE_ADDRESS_MASK_ENABLE
  -------         PROC          _I2C_SLAVE_ADDRESS_MASK_DISABLE
  D:0007H         SYMBOL        u8I2CSLVSEL
  D:0005H         SYMBOL        u8I2CAddMaskBit
  C:6840H         LINE#         201
  C:6840H         LINE#         202
  C:6840H         LINE#         203
  C:6843H         LINE#         204
  C:684AH         LINE#         205
  C:684AH         LINE#         206
  C:684EH         LINE#         207
  C:6852H         LINE#         208
  C:6852H         LINE#         209
  C:6852H         LINE#         210
  -------         ENDPROC       _I2C_SLAVE_ADDRESS_MASK_DISABLE
  -------         ENDMOD        I2C

  -------         MODULE        UART3
  C:0000H         SYMBOL        _ICE_DUMMY_
  D:00DBH         PUBLIC        SC1ETURD0
  D:00DCH         PUBLIC        SC1ETURD1
  D:0080H         PUBLIC        P0
  D:0090H         PUBLIC        P1
  D:00A0H         PUBLIC        P2
  D:00B0H         PUBLIC        P3
  D:00D8H         PUBLIC        P4
  D:00E6H         PUBLIC        SC1CR0
  D:00A8H         PUBLIC        IE
  D:00E7H         PUBLIC        SC1CR1
  D:00B8H         PUBLIC        IP
  D:0098H         PUBLIC        SCON
BL51 BANKED LINKER/LOCATER V6.22.2.0                                                  11/01/2022  15:49:49  PAGE 27


  D:0088H         PUBLIC        TCON
  C:009EH         PUBLIC        _UART3_Send_Data
  D:0091H         PUBLIC        SFRS
  D:00DFH         PUBLIC        SC1TSR
  D:00C0H         PUBLIC        I2C0CON
  D:00E8H         PUBLIC        I2C1CON
  X:074FH         PUBLIC        uart3rvbuffer
  D:00D9H         PUBLIC        SC1DR
  C:674AH         PUBLIC        SMC1_ISR
  D:00F8H         PUBLIC        S1CON
  C:4FA4H         PUBLIC        _UART3_Open
  D:00C8H         PUBLIC        T2CON
  C:007EH         PUBLIC        UART3_Receive_Data
  B:0020H.6       PUBLIC        uart3rvflag
  D:00D0H         PUBLIC        PSW
  -------         PROC          SMC1_ISR
  C:674AH         LINE#         19
  C:6750H         LINE#         21
  C:6752H         LINE#         22
  C:6755H         LINE#         23
  C:6757H         LINE#         24
  C:675DH         LINE#         25
  C:675FH         LINE#         26
  -------         ENDPROC       SMC1_ISR
  -------         PROC          _UART3_OPEN
  X:071DH         SYMBOL        u32SysClock
  X:0721H         SYMBOL        u32Baudrate
  C:4FA4H         LINE#         35
  C:4FAAH         LINE#         36
  C:4FAAH         LINE#         37
  C:4FB0H         LINE#         38
  C:4FB6H         LINE#         39
  C:4FBCH         LINE#         40
  C:4FC2H         LINE#         41
  C:4FC8H         LINE#         42
  C:5004H         LINE#         43
  C:5007H         LINE#         44
  C:5048H         LINE#         45
  C:504EH         LINE#         46
  C:5051H         LINE#         47
  C:5057H         LINE#         48
  -------         ENDPROC       _UART3_OPEN
  -------         PROC          UART3_RECEIVE_DATA
  -------         DO            
  D:0007H         SYMBOL        c
  -------         ENDDO         
  C:007EH         LINE#         57
  C:007EH         LINE#         58
  C:007EH         LINE#         61
  C:0084H         LINE#         62
  C:0098H         LINE#         63
  C:009AH         LINE#         65
  C:009AH         LINE#         66
  -------         ENDPROC       UART3_RECEIVE_DATA
  -------         PROC          _UART3_SEND_DATA
  D:0007H         SYMBOL        c
  C:009EH         LINE#         75
BL51 BANKED LINKER/LOCATER V6.22.2.0                                                  11/01/2022  15:49:49  PAGE 28


  C:009EH         LINE#         76
  C:009EH         LINE#         77
  C:00A4H         LINE#         78
  C:00A6H         LINE#         79
  C:00ABH         LINE#         80
  C:00B1H         LINE#         81
  -------         ENDPROC       _UART3_SEND_DATA
  -------         ENDMOD        UART3

  -------         MODULE        UART
  C:0000H         SYMBOL        _ICE_DUMMY_
  D:0080H         PUBLIC        P0
  D:0090H         PUBLIC        P1
  D:00C2H         PUBLIC        P3M1
  D:00A0H         PUBLIC        P2
  D:00C3H         PUBLIC        P3M2
  D:00B0H         PUBLIC        P3
  D:00D8H         PUBLIC        P4
  D:009CH         PUBLIC        EIE1
  C:666EH         PUBLIC        _UART_Send_Data
  B:0020H.0       PUBLIC        UART0PRINTFG
  B:0020H.1       PUBLIC        UART1PRINTFG
  D:00A8H         PUBLIC        IE
  D:00B8H         PUBLIC        IP
  B:0098H.0       PUBLIC        RI
  B:0098H.1       PUBLIC        TI
  C:652DH         PUBLIC        _UART_Interrupt_Enable
  C:6414H         PUBLIC        Enable_UART0_VCOM_printf
  B:00F8H.0       PUBLIC        RI_1
  B:00F8H.1       PUBLIC        TI_1
  D:0099H         PUBLIC        SBUF
  D:0087H         PUBLIC        PCON
  C:38F5H         PUBLIC        _UART_Open
  D:0098H         PUBLIC        SCON
  X:074CH         PUBLIC        uart0_receive_data
  B:0020H.2       PUBLIC        uart0_receive_flag
  D:0089H         PUBLIC        TMOD
  D:0088H         PUBLIC        TCON
  X:074DH         PUBLIC        uart1_receive_data
  B:0020H.3       PUBLIC        uart1_receive_flag
  C:66EFH         PUBLIC        UART0_ISR
  D:0091H         PUBLIC        SFRS
  C:670EH         PUBLIC        _UART_Receive_Data
  D:00C6H         PUBLIC        RH3
  D:008DH         PUBLIC        TH1
  D:00C0H         PUBLIC        I2C0CON
  D:00E8H         PUBLIC        I2C1CON
  D:00C5H         PUBLIC        RL3
  D:009AH         PUBLIC        SBUF1
  D:00F8H         PUBLIC        S1CON
  D:00C8H         PUBLIC        T2CON
  D:00C4H         PUBLIC        T3CON
  D:008EH         PUBLIC        CKCON
  D:00F6H         PUBLIC        P3MF10
  D:00D0H         PUBLIC        PSW
  -------         PROC          ENABLE_UART0_VCOM_PRINTF
  C:6414H         LINE#         20
BL51 BANKED LINKER/LOCATER V6.22.2.0                                                  11/01/2022  15:49:49  PAGE 29


  C:6414H         LINE#         21
  C:6414H         LINE#         26
  C:641DH         LINE#         27
  C:6426H         LINE#         28
  C:643FH         LINE#         29
  C:6444H         LINE#         30
  -------         ENDPROC       ENABLE_UART0_VCOM_PRINTF
  -------         PROC          UART0_ISR
  C:66EFH         LINE#         40
  C:66F5H         LINE#         42
  C:66F7H         LINE#         43
  C:66FAH         LINE#         44
  C:66FAH         LINE#         45
  C:66FCH         LINE#         46
  C:6702H         LINE#         47
  C:6705H         LINE#         48
  C:6705H         LINE#         49
  C:6705H         LINE#         50
  C:6705H         LINE#         53
  C:6705H         LINE#         54
  C:6707H         LINE#         55
  -------         ENDPROC       UART0_ISR
  -------         PROC          _UART_OPEN
  X:06D1H         SYMBOL        u32SysClock
  X:06D5H         SYMBOL        u8UARTPort
  X:06D6H         SYMBOL        u32Baudrate
  C:38F5H         LINE#         73
  C:38FBH         LINE#         74
  C:38FBH         LINE#         75
  C:391AH         LINE#         76
  C:391AH         LINE#         77
  C:391AH         LINE#         78
  C:391AH         LINE#         79
  C:391DH         LINE#         80
  C:3920H         LINE#         81
  C:3923H         LINE#         82
  C:3926H         LINE#         83
  C:392BH         LINE#         84
  C:3930H         LINE#         85
  C:395CH         LINE#         86
  C:395FH         LINE#         87
  C:3960H         LINE#         88
  C:3960H         LINE#         89
  C:3963H         LINE#         90
  C:3966H         LINE#         91
  C:3969H         LINE#         92
  C:396CH         LINE#         93
  C:3971H         LINE#         94
  C:39ADH         LINE#         95
  C:39E7H         LINE#         96
  C:39ECH         LINE#         97
  C:39EDH         LINE#         98
  C:39EDH         LINE#         99
  C:39EDH         LINE#         100
  C:39F0H         LINE#         101
  C:39F3H         LINE#         102
  C:39F6H         LINE#         103
BL51 BANKED LINKER/LOCATER V6.22.2.0                                                  11/01/2022  15:49:49  PAGE 30


  C:3A32H         LINE#         104
  C:3A6CH         LINE#         105
  C:3A71H         LINE#         106
  C:3A71H         LINE#         108
  C:3A71H         LINE#         109
  -------         ENDPROC       _UART_OPEN
  -------         PROC          _UART_RECEIVE_DATA
  D:0007H         SYMBOL        UARTPort
  -------         DO            
  D:0006H         SYMBOL        c
  -------         ENDDO         
  C:670EH         LINE#         113
  C:670EH         LINE#         114
  C:670EH         LINE#         116
  C:6711H         LINE#         117
  C:6719H         LINE#         118
  C:6719H         LINE#         119
  C:6719H         LINE#         120
  C:671CH         LINE#         121
  C:671EH         LINE#         122
  C:6720H         LINE#         123
  C:6722H         LINE#         124
  C:6722H         LINE#         125
  C:6725H         LINE#         126
  C:6727H         LINE#         127
  C:6729H         LINE#         128
  C:6729H         LINE#         129
  C:6729H         LINE#         130
  C:672BH         LINE#         131
  -------         ENDPROC       _UART_RECEIVE_DATA
  -------         PROC          _UART_SEND_DATA
  D:0007H         SYMBOL        UARTPort
  D:0005H         SYMBOL        c
  C:666EH         LINE#         135
  C:666EH         LINE#         136
  C:666EH         LINE#         137
  C:6671H         LINE#         138
  C:6679H         LINE#         139
  C:6679H         LINE#         140
  C:6679H         LINE#         141
  C:667BH         LINE#         142
  C:667DH         LINE#         143
  C:6680H         LINE#         144
  C:6682H         LINE#         145
  C:6683H         LINE#         146
  C:6683H         LINE#         147
  C:6685H         LINE#         148
  C:6689H         LINE#         149
  C:668CH         LINE#         150
  C:668EH         LINE#         151
  C:668EH         LINE#         152
  C:668EH         LINE#         153
  -------         ENDPROC       _UART_SEND_DATA
  -------         PROC          _UART_INTERRUPT_ENABLE
  D:0007H         SYMBOL        u8UARTPort
  D:0005H         SYMBOL        u8UARTINTStatus
  C:652DH         LINE#         164
BL51 BANKED LINKER/LOCATER V6.22.2.0                                                  11/01/2022  15:49:49  PAGE 31


  C:652DH         LINE#         165
  C:652DH         LINE#         166
  C:6535H         LINE#         167
  C:6535H         LINE#         168
  C:6535H         LINE#         169
  C:653CH         LINE#         170
  C:653CH         LINE#         171
  C:6540H         LINE#         172
  C:6544H         LINE#         173
  C:6544H         LINE#         174
  C:6545H         LINE#         175
  C:6545H         LINE#         176
  C:654CH         LINE#         177
  C:654CH         LINE#         178
  C:6553H         LINE#         179
  C:6559H         LINE#         180
  C:6559H         LINE#         181
  C:6559H         LINE#         182
  C:6559H         LINE#         183
  -------         ENDPROC       _UART_INTERRUPT_ENABLE
  -------         ENDMOD        UART

  -------         MODULE        PWM0
  C:0000H         SYMBOL        _ICE_DUMMY_
  D:0080H         PUBLIC        P0
  D:0090H         PUBLIC        P1
  D:00A0H         PUBLIC        P2
  D:00B0H         PUBLIC        P3
  D:00D8H         PUBLIC        P4
  B:00A8H.7       PUBLIC        EA
  D:00A8H         PUBLIC        IE
  D:00C7H         PUBLIC        TA
  D:00B8H         PUBLIC        IP
  D:00FAH         PUBLIC        PWM0DTCNT
  D:0098H         PUBLIC        SCON
  C:2E2BH         PUBLIC        _PWM0_ConfigOutputChannel
  D:0088H         PUBLIC        TCON
  D:00D1H         PUBLIC        PWM0CON0
  D:00DFH         PUBLIC        PWM0CON1
  D:009DH         PUBLIC        PWM1CON1
  D:00D1H         PUBLIC        PWM0PH
  D:0091H         PUBLIC        SFRS
  D:00D9H         PUBLIC        PWM0PL
  D:00E0H         PUBLIC        ACC
  C:698DH         PUBLIC        PWM0_STOP
  D:00C0H         PUBLIC        I2C0CON
  D:00E8H         PUBLIC        I2C1CON
  D:00F9H         PUBLIC        PWM0DTEN
  C:5C04H         PUBLIC        _PWM0_DeadZoneEnable
  D:00D2H         PUBLIC        PWM0C0H
  D:00D3H         PUBLIC        PWM0C1H
  D:00D4H         PUBLIC        PWM0C2H
  D:00D5H         PUBLIC        PWM0C3H
  D:00DAH         PUBLIC        PWM0C0L
  D:00C4H         PUBLIC        PWM0C4H
  D:00F8H         PUBLIC        S1CON
  D:00DBH         PUBLIC        PWM0C1L
BL51 BANKED LINKER/LOCATER V6.22.2.0                                                  11/01/2022  15:49:49  PAGE 32


  D:00C5H         PUBLIC        PWM0C5H
  D:00DCH         PUBLIC        PWM0C2L
  D:00C8H         PUBLIC        T2CON
  D:00DDH         PUBLIC        PWM0C3L
  C:68BDH         PUBLIC        PWM0_DeadZone_ALL_Disable
  D:00CCH         PUBLIC        PWM0C4L
  D:00CDH         PUBLIC        PWM0C5L
  C:58BEH         PUBLIC        _PWM0_ClockSource
  C:592CH         PUBLIC        _PWM1_ClockSource
  D:008EH         PUBLIC        CKCON
  D:00D0H         PUBLIC        PSW
  C:6986H         PUBLIC        PWM0_RUN
  -------         PROC          _PWM0_CLOCKSOURCE
  D:0007H         SYMBOL        u8PWMCLKSource
  D:0005H         SYMBOL        u8PWM0CLKDIV
  C:58BEH         LINE#         25
  C:58BEH         LINE#         26
  C:58BEH         LINE#         27
  C:58C5H         LINE#         28
  C:58C5H         LINE#         29
  C:58CDH         LINE#         30
  C:58D3H         LINE#         31
  C:58D3H         LINE#         32
  C:58D6H         LINE#         33
  C:58F7H         LINE#         34
  C:58F7H         LINE#         35
  C:58FBH         LINE#         36
  C:5902H         LINE#         37
  C:5909H         LINE#         38
  C:5910H         LINE#         39
  C:5917H         LINE#         40
  C:591EH         LINE#         41
  C:5925H         LINE#         42
  C:592BH         LINE#         43
  C:592BH         LINE#         44
  -------         ENDPROC       _PWM0_CLOCKSOURCE
  -------         PROC          _PWM0_CONFIGOUTPUTCHANNEL
  D:0007H         SYMBOL        u8PWM0ChannelNum
  D:0005H         SYMBOL        u8PWM0OPMode
  D:0003H         SYMBOL        u8PWM0PwmType
  X:06D5H         SYMBOL        u32PWM0Frequency
  X:06D9H         SYMBOL        u16PWM0DutyCycle
  C:2E2BH         LINE#         57
  C:2E2BH         LINE#         62
  C:2E2BH         LINE#         63
  C:2E2EH         LINE#         64
  C:2E39H         LINE#         65
  C:2E39H         LINE#         66
  C:2E3EH         LINE#         67
  C:2E46H         LINE#         68
  C:2E4CH         LINE#         69
  C:2E4CH         LINE#         70
  C:2E53H         LINE#         71
  C:2E53H         LINE#         72
  C:2E58H         LINE#         73
  C:2E5BH         LINE#         74
  C:2E5BH         LINE#         75
BL51 BANKED LINKER/LOCATER V6.22.2.0                                                  11/01/2022  15:49:49  PAGE 33


  C:2E7EH         LINE#         76
  C:2E7EH         LINE#         77
  C:2ED4H         LINE#         78
  C:2F2AH         LINE#         79
  C:2F80H         LINE#         80
  C:2FD6H         LINE#         81
  C:302BH         LINE#         82
  C:307EH         LINE#         83
  C:307EH         LINE#         84
  C:3093H         LINE#         85
  C:309FH         LINE#         86
  -------         ENDPROC       _PWM0_CONFIGOUTPUTCHANNEL
  -------         PROC          _PWM0_DEADZONEENABLE
  D:0007H         SYMBOL        u8PWM0Pair
  D:0004H         SYMBOL        u16PWM0DZValue
  C:5C04H         LINE#         96
  C:5C04H         LINE#         97
  C:5C04H         LINE#         98
  C:5C07H         LINE#         99
  C:5C0DH         LINE#         100
  C:5C12H         LINE#         101
  C:5C1AH         LINE#         102
  C:5C28H         LINE#         103
  C:5C28H         LINE#         104
  C:5C33H         LINE#         105
  C:5C3EH         LINE#         106
  C:5C49H         LINE#         107
  C:5C52H         LINE#         108
  C:5C52H         LINE#         109
  C:5C53H         LINE#         110
  C:5C59H         LINE#         111
  C:5C5BH         LINE#         112
  C:5C5FH         LINE#         113
  -------         ENDPROC       _PWM0_DEADZONEENABLE
  -------         PROC          PWM0_DEADZONE_ALL_DISABLE
  C:68BDH         LINE#         122
  C:68BDH         LINE#         123
  C:68BDH         LINE#         124
  C:68C0H         LINE#         125
  C:68C6H         LINE#         126
  C:68C9H         LINE#         127
  C:68CDH         LINE#         128
  -------         ENDPROC       PWM0_DEADZONE_ALL_DISABLE
  -------         PROC          PWM0_RUN
  C:6986H         LINE#         137
  C:6986H         LINE#         138
  C:6986H         LINE#         139
  C:698CH         LINE#         140
  -------         ENDPROC       PWM0_RUN
  -------         PROC          PWM0_STOP
  C:698DH         LINE#         149
  C:698DH         LINE#         150
  C:698DH         LINE#         151
  C:6993H         LINE#         152
  -------         ENDPROC       PWM0_STOP
  -------         PROC          _PWM1_CLOCKSOURCE
  D:0007H         SYMBOL        u8PWMCLKSource
BL51 BANKED LINKER/LOCATER V6.22.2.0                                                  11/01/2022  15:49:49  PAGE 34


  D:0005H         SYMBOL        u8PWM0CLKDIV
  C:592CH         LINE#         166
  C:592CH         LINE#         167
  C:592CH         LINE#         168
  C:5933H         LINE#         169
  C:5933H         LINE#         170
  C:593BH         LINE#         171
  C:5941H         LINE#         172
  C:5941H         LINE#         173
  C:5944H         LINE#         174
  C:5965H         LINE#         175
  C:5965H         LINE#         176
  C:5969H         LINE#         177
  C:5970H         LINE#         178
  C:5977H         LINE#         179
  C:597EH         LINE#         180
  C:5985H         LINE#         181
  C:598CH         LINE#         182
  C:5993H         LINE#         183
  C:5999H         LINE#         184
  C:5999H         LINE#         185
  -------         ENDPROC       _PWM1_CLOCKSOURCE
  -------         ENDMOD        PWM0

  -------         MODULE        PWM123
  C:0000H         SYMBOL        _ICE_DUMMY_
  D:0080H         PUBLIC        P0
  D:0090H         PUBLIC        P1
  D:00A0H         PUBLIC        P2
  D:00B0H         PUBLIC        P3
  D:00D8H         PUBLIC        P4
  D:00A8H         PUBLIC        IE
  D:00B8H         PUBLIC        IP
  C:46F3H         PUBLIC        _PWM123_ConfigOutputChannel
  D:0098H         PUBLIC        SCON
  D:0088H         PUBLIC        TCON
  D:009DH         PUBLIC        PWM1CON1
  D:00C5H         PUBLIC        PWM2CON1
  D:00D5H         PUBLIC        PWM3CON1
  D:0086H         PUBLIC        PWM1PH
  D:0091H         PUBLIC        SFRS
  D:00B9H         PUBLIC        PWM2PH
  D:00C9H         PUBLIC        PWM3PH
  D:0099H         PUBLIC        PWM1PL
  D:00C1H         PUBLIC        PWM2PL
  D:00D1H         PUBLIC        PWM3PL
  D:00C0H         PUBLIC        I2C0CON
  D:00E8H         PUBLIC        I2C1CON
  C:343CH         PUBLIC        _PWM123_ClockSource
  D:008AH         PUBLIC        PWM1C0H
  D:00BAH         PUBLIC        PWM2C0H
  D:008BH         PUBLIC        PWM1C1H
  D:00CAH         PUBLIC        PWM3C0H
  D:00BBH         PUBLIC        PWM2C1H
  D:00CBH         PUBLIC        PWM3C1H
  D:00F8H         PUBLIC        S1CON
  D:009AH         PUBLIC        PWM1C0L
BL51 BANKED LINKER/LOCATER V6.22.2.0                                                  11/01/2022  15:49:49  PAGE 35


  D:00C2H         PUBLIC        PWM2C0L
  D:009BH         PUBLIC        PWM1C1L
  D:00C8H         PUBLIC        T2CON
  D:00D2H         PUBLIC        PWM3C0L
  D:00C3H         PUBLIC        PWM2C1L
  D:00D3H         PUBLIC        PWM3C1L
  D:00D0H         PUBLIC        PSW
  -------         PROC          _PWM123_CLOCKSOURCE
  D:0007H         SYMBOL        u8PWMNum
  X:06D1H         SYMBOL        u8PWMCLKDIV
  C:343CH         LINE#         23
  C:3441H         LINE#         24
  C:3441H         LINE#         25
  C:3443H         LINE#         26
  C:3458H         LINE#         27
  C:3458H         LINE#         28
  C:3458H         LINE#         29
  C:347FH         LINE#         30
  C:347FH         LINE#         31
  C:3488H         LINE#         32
  C:3494H         LINE#         33
  C:34A0H         LINE#         34
  C:34ACH         LINE#         35
  C:34B8H         LINE#         36
  C:34C4H         LINE#         37
  C:34D0H         LINE#         38
  C:34D9H         LINE#         39
  C:34D9H         LINE#         40
  C:34DCH         LINE#         41
  C:34DCH         LINE#         42
  C:3503H         LINE#         43
  C:3503H         LINE#         44
  C:350CH         LINE#         45
  C:3518H         LINE#         46
  C:3524H         LINE#         47
  C:3530H         LINE#         48
  C:353CH         LINE#         49
  C:3548H         LINE#         50
  C:3553H         LINE#         51
  C:355BH         LINE#         52
  C:355BH         LINE#         53
  C:355DH         LINE#         54
  C:355DH         LINE#         55
  C:3581H         LINE#         56
  C:3581H         LINE#         57
  C:3589H         LINE#         58
  C:3594H         LINE#         59
  C:359FH         LINE#         60
  C:35AAH         LINE#         61
  C:35B5H         LINE#         62
  C:35C0H         LINE#         63
  C:35CBH         LINE#         64
  C:35D1H         LINE#         65
  C:35D1H         LINE#         66
  C:35D1H         LINE#         67
  C:35D1H         LINE#         68
  C:35D3H         LINE#         69
BL51 BANKED LINKER/LOCATER V6.22.2.0                                                  11/01/2022  15:49:49  PAGE 36


  -------         ENDPROC       _PWM123_CLOCKSOURCE
  -------         PROC          _PWM123_CONFIGOUTPUTCHANNEL
  D:0007H         SYMBOL        u8PWMNum
  X:06D2H         SYMBOL        u8PWMChannelNum
  D:0002H         SYMBOL        u16PWMFrequency
  X:06D5H         SYMBOL        u16PWMDutyCycle
  C:46F3H         LINE#         83
  C:46F8H         LINE#         87
  C:46F8H         LINE#         88
  C:46FAH         LINE#         89
  C:46FDH         LINE#         90
  C:470FH         LINE#         91
  C:470FH         LINE#         92
  C:470FH         LINE#         93
  C:4719H         LINE#         94
  C:4719H         LINE#         95
  C:473AH         LINE#         96
  C:4759H         LINE#         97
  C:4759H         LINE#         98
  C:475CH         LINE#         99
  C:475EH         LINE#         100
  C:4761H         LINE#         101
  C:4761H         LINE#         102
  C:476BH         LINE#         103
  C:476BH         LINE#         104
  C:478CH         LINE#         105
  C:47ABH         LINE#         106
  C:47ABH         LINE#         107
  C:47AEH         LINE#         108
  C:47B0H         LINE#         109
  C:47B2H         LINE#         110
  C:47B2H         LINE#         111
  C:47BCH         LINE#         112
  C:47BCH         LINE#         113
  C:47DDH         LINE#         114
  C:47FCH         LINE#         115
  C:47FCH         LINE#         116
  C:47FFH         LINE#         117
  C:4803H         LINE#         118
  C:4803H         LINE#         119
  C:4803H         LINE#         120
  C:4805H         LINE#         121
  -------         ENDPROC       _PWM123_CONFIGOUTPUTCHANNEL
  -------         ENDMOD        PWM123

  -------         MODULE        EEPROM
  C:0000H         SYMBOL        _ICE_DUMMY_
  D:0080H         PUBLIC        P0
  D:0090H         PUBLIC        P1
  D:00A0H         PUBLIC        P2
  D:00B0H         PUBLIC        P3
  D:00D8H         PUBLIC        P4
  B:00A8H.7       PUBLIC        EA
  D:00A8H         PUBLIC        IE
  C:3BEFH         PUBLIC        _Write_DATAFLASH_BYTE
  D:00C7H         PUBLIC        TA
  D:00B8H         PUBLIC        IP
BL51 BANKED LINKER/LOCATER V6.22.2.0                                                  11/01/2022  15:49:49  PAGE 37


  D:0098H         PUBLIC        SCON
  D:0088H         PUBLIC        TCON
  D:009FH         PUBLIC        CHPCON
  D:0091H         PUBLIC        SFRS
  D:00A5H         PUBLIC        IAPUEN
  D:00A4H         PUBLIC        IAPTRG
  C:5ADAH         PUBLIC        _Read_DATAFLASH_ARRAY
  D:00C0H         PUBLIC        I2C0CON
  D:00E8H         PUBLIC        I2C1CON
  C:4D67H         PUBLIC        _Write_DATAFLASH_ARRAY
  D:00A7H         PUBLIC        IAPAH
  D:00F8H         PUBLIC        S1CON
  D:00AEH         PUBLIC        IAPFD
  D:00C8H         PUBLIC        T2CON
  D:00A6H         PUBLIC        IAPAL
  D:00AFH         PUBLIC        IAPCN
  C:2B88H         PUBLIC        _WriteDataToOnePage
  D:00D0H         PUBLIC        PSW
  -------         PROC          _WRITE_DATAFLASH_BYTE
  X:072DH         SYMBOL        u16EPAddr
  X:072FH         SYMBOL        u8EPData
  -------         DO            
  X:0730H         SYMBOL        looptmp
  X:0731H         SYMBOL        u16_addrl_r
  D:0006H         SYMBOL        RAMtmp
  -------         ENDDO         
  C:3BEFH         LINE#         26
  C:3BFAH         LINE#         27
  C:3BFAH         LINE#         28
  C:3BFDH         LINE#         33
  C:3C1FH         LINE#         36
  C:3C32H         LINE#         37
  C:3C32H         LINE#         38
  C:3C44H         LINE#         39
  C:3C53H         LINE#         40
  C:3C5BH         LINE#         43
  C:3C73H         LINE#         46
  C:3C7CH         LINE#         47
  C:3C7FH         LINE#         48
  C:3C82H         LINE#         49
  C:3C98H         LINE#         50
  C:3CADH         LINE#         51
  C:3CB0H         LINE#         52
  C:3CC5H         LINE#         55
  C:3CDAH         LINE#         56
  C:3CEFH         LINE#         57
  C:3CF2H         LINE#         59
  C:3D04H         LINE#         60
  C:3D04H         LINE#         61
  C:3D0EH         LINE#         62
  C:3D11H         LINE#         63
  C:3D1EH         LINE#         64
  C:3D34H         LINE#         65
  C:3D3CH         LINE#         67
  C:3D52H         LINE#         68
  C:3D67H         LINE#         69
  -------         ENDPROC       _WRITE_DATAFLASH_BYTE
BL51 BANKED LINKER/LOCATER V6.22.2.0                                                  11/01/2022  15:49:49  PAGE 38


  -------         PROC          _WRITE_DATAFLASH_ARRAY
  X:0725H         SYMBOL        u16_addr
  X:0727H         SYMBOL        pDat
  X:072AH         SYMBOL        num
  -------         DO            
  D:0003H         SYMBOL        CPageAddr
  X:072CH         SYMBOL        EPageAddr
  D:0005H         SYMBOL        cnt
  -------         ENDDO         
  C:4D67H         LINE#         73
  C:4D78H         LINE#         74
  C:4D78H         LINE#         76
  C:4D8CH         LINE#         77
  C:4DA6H         LINE#         79
  C:4DADH         LINE#         80
  C:4DADH         LINE#         81
  C:4DC9H         LINE#         82
  C:4DD7H         LINE#         83
  C:4DE1H         LINE#         84
  C:4DF0H         LINE#         85
  C:4E01H         LINE#         86
  C:4E03H         LINE#         88
  C:4E0EH         LINE#         89
  C:4E0EH         LINE#         90
  C:4E27H         LINE#         91
  C:4E27H         LINE#         92
  -------         ENDPROC       _WRITE_DATAFLASH_ARRAY
  -------         PROC          _READ_DATAFLASH_ARRAY
  X:06D6H         SYMBOL        u16_addr
  X:06D8H         SYMBOL        pDat
  X:06DBH         SYMBOL        num
  -------         DO            
  X:06DDH         SYMBOL        i
  -------         ENDDO         
  C:5ADAH         LINE#         94
  C:5AEBH         LINE#         95
  C:5AEBH         LINE#         98
  C:5B06H         LINE#         99
  C:5B41H         LINE#         100
  -------         ENDPROC       _READ_DATAFLASH_ARRAY
  -------         PROC          _WRITEDATATOONEPAGE
  X:05D5H         SYMBOL        u16_addr
  X:05D7H         SYMBOL        pDat
  X:05DAH         SYMBOL        num
  -------         DO            
  X:05DBH         SYMBOL        i
  X:05DCH         SYMBOL        offset
  X:05DDH         SYMBOL        pCode
  X:05DFH         SYMBOL        xd_tmp
  C:2CCFH         SYMBOL        WriteDataToPage20
  -------         ENDDO         
  C:2B88H         LINE#         103
  C:2B99H         LINE#         104
  C:2B99H         LINE#         109
  C:2BAFH         LINE#         110
  C:2BC4H         LINE#         112
  C:2BD3H         LINE#         113
BL51 BANKED LINKER/LOCATER V6.22.2.0                                                  11/01/2022  15:49:49  PAGE 39


  C:2BDCH         LINE#         115
  C:2BEAH         LINE#         117
  C:2BF2H         LINE#         119
  C:2C03H         LINE#         120
  C:2C03H         LINE#         121
  C:2C16H         LINE#         122
  C:2C1EH         LINE#         124
  C:2C28H         LINE#         125
  C:2C28H         LINE#         126
  C:2C2BH         LINE#         127
  C:2C34H         LINE#         128
  C:2C37H         LINE#         130
  C:2C48H         LINE#         131
  C:2C48H         LINE#         132
  C:2C5DH         LINE#         133
  C:2C73H         LINE#         134
  C:2C75H         LINE#         135
  C:2C7DH         LINE#         137
  C:2C8EH         LINE#         138
  C:2C8EH         LINE#         139
  C:2CB5H         LINE#         140
  C:2CBDH         LINE#         142
  C:2CCCH         LINE#         143
  C:2CCFH         LINE#         145
  C:2CCFH         LINE#         146
  C:2CCFH         LINE#         147
  C:2CE0H         LINE#         149
  C:2CF2H         LINE#         150
  C:2CF2H         LINE#         151
  C:2D11H         LINE#         152
  C:2D19H         LINE#         154
  C:2D29H         LINE#         155
  C:2D29H         LINE#         156
  C:2D52H         LINE#         157
  C:2D5AH         LINE#         160
  C:2D5AH         LINE#         161
  C:2D65H         LINE#         162
  C:2D68H         LINE#         163
  C:2D6BH         LINE#         164
  C:2D6EH         LINE#         165
  C:2D84H         LINE#         166
  C:2D87H         LINE#         168
  C:2D99H         LINE#         169
  C:2D99H         LINE#         170
  C:2DA6H         LINE#         171
  C:2DBCH         LINE#         172
  C:2DBEH         LINE#         173
  C:2DC6H         LINE#         175
  C:2DDBH         LINE#         176
  C:2DDBH         LINE#         177
  C:2DFEH         LINE#         178
  C:2E06H         LINE#         179
  C:2E0FH         LINE#         181
  C:2E0FH         LINE#         183
  C:2E25H         LINE#         185
  C:2E2AH         LINE#         186
  -------         ENDPROC       _WRITEDATATOONEPAGE
BL51 BANKED LINKER/LOCATER V6.22.2.0                                                  11/01/2022  15:49:49  PAGE 40


  -------         ENDMOD        EEPROM

  -------         MODULE        LCD
  C:0000H         SYMBOL        _ICE_DUMMY_
  C:6939H         PUBLIC        LCD_Enable
  D:0080H         PUBLIC        P0
  D:0090H         PUBLIC        P1
  D:00A0H         PUBLIC        P2
  D:00B0H         PUBLIC        P3
  D:00D8H         PUBLIC        P4
  C:003EH         PUBLIC        _LCD_Current_Mode
  B:00A8H.7       PUBLIC        EA
  C:65DBH         PUBLIC        _LCD_SetOnePixel
  D:00A8H         PUBLIC        IE
  D:00C7H         PUBLIC        TA
  D:00B8H         PUBLIC        IP
  C:66AFH         PUBLIC        _LCD_PowerDown_Display
  C:68DFH         PUBLIC        _LCD_Blink
  D:00FCH         PUBLIC        LCDDAT
  D:00FAH         PUBLIC        LCDCLK
  D:0098H         PUBLIC        SCON
  D:0088H         PUBLIC        TCON
  C:6587H         PUBLIC        _LCD_Interrupt_Initial
  D:00F5H         PUBLIC        LCDCPALCT0
  D:00E9H         PUBLIC        LCDCPALCT1
  D:0091H         PUBLIC        SFRS
  C:6055H         PUBLIC        _LCD_Open
  D:00FBH         PUBLIC        LCDPTR
  D:00FDH         PUBLIC        LCDPWR
  D:00C0H         PUBLIC        I2C0CON
  D:00E8H         PUBLIC        I2C1CON
  D:00F1H         PUBLIC        LCDCPUMP
  D:00FEH         PUBLIC        LCDBL
  D:00F9H         PUBLIC        LCDCON0
  D:00F8H         PUBLIC        S1CON
  D:00F4H         PUBLIC        LCDCON1
  C:668FH         PUBLIC        _LCD_Clock_Setting
  D:00C8H         PUBLIC        T2CON
  C:6994H         PUBLIC        LCD_Disable
  C:622CH         PUBLIC        _LCD_SetAllPixels
  D:00FFH         PUBLIC        LCDMODE
  D:00D0H         PUBLIC        PSW
  -------         PROC          _LCD_OPEN
  X:06D1H         SYMBOL        u8LCDPowerType
  X:06D2H         SYMBOL        u8LCDVSource
  X:06D3H         SYMBOL        u8DrivingVol
  X:06D4H         SYMBOL        u8BiasLevel
  X:06D5H         SYMBOL        u8ComNum
  C:6055H         LINE#         28
  C:6060H         LINE#         29
  C:6060H         LINE#         30
  C:6063H         LINE#         31
  C:6066H         LINE#         33
  C:606BH         LINE#         35
  C:6075H         LINE#         36
  C:6075H         LINE#         37
  C:607DH         LINE#         38
BL51 BANKED LINKER/LOCATER V6.22.2.0                                                  11/01/2022  15:49:49  PAGE 41


  C:6083H         LINE#         39
  C:6083H         LINE#         41
  C:608CH         LINE#         42
  C:6093H         LINE#         43
  C:6099H         LINE#         44
  C:609FH         LINE#         46
  -------         ENDPROC       _LCD_OPEN
  -------         PROC          _LCD_CURRENT_MODE
  D:0007H         SYMBOL        u8LCDCurrentSel
  D:0005H         SYMBOL        u8LCDPSSel
  C:003EH         LINE#         60
  C:003EH         LINE#         61
  C:003EH         LINE#         62
  C:0041H         LINE#         63
  C:0046H         LINE#         64
  C:0059H         LINE#         65
  C:0059H         LINE#         66
  C:0059H         LINE#         67
  C:0059H         LINE#         68
  C:005EH         LINE#         69
  C:005EH         LINE#         70
  C:0061H         LINE#         71
  C:0077H         LINE#         72
  C:0077H         LINE#         73
  C:0077H         LINE#         74
  C:007AH         LINE#         75
  C:007AH         LINE#         77
  -------         ENDPROC       _LCD_CURRENT_MODE
  -------         PROC          _LCD_CLOCK_SETTING
  D:0007H         SYMBOL        u8LCDCLKSource
  D:0005H         SYMBOL        u8LCDCLKDiv
  C:668FH         LINE#         87
  C:668FH         LINE#         88
  C:668FH         LINE#         89
  C:6692H         LINE#         90
  C:669AH         LINE#         91
  C:669AH         LINE#         92
  C:66A2H         LINE#         93
  C:66A8H         LINE#         94
  C:66A8H         LINE#         95
  C:66AEH         LINE#         97
  -------         ENDPROC       _LCD_CLOCK_SETTING
  -------         PROC          _LCD_BLINK
  D:0007H         SYMBOL        u8LCDBKStatus
  D:0005H         SYMBOL        u8LCDBKFEQ
  C:68DFH         LINE#         110
  C:68DFH         LINE#         111
  C:68DFH         LINE#         112
  C:68E2H         LINE#         113
  C:68E5H         LINE#         114
  C:68EDH         LINE#         115
  -------         ENDPROC       _LCD_BLINK
  -------         PROC          _LCD_INTERRUPT_INITIAL
  D:0007H         SYMBOL        u8lcdIntStatus
  D:0005H         SYMBOL        u8lcdIntSel
  D:0002H         SYMBOL        u8lcdAlmValue
  -------         DO            
BL51 BANKED LINKER/LOCATER V6.22.2.0                                                  11/01/2022  15:49:49  PAGE 42


  D:0006H         SYMBOL        datatemp
  -------         ENDDO         
  C:6587H         LINE#         124
  C:6587H         LINE#         125
  C:6587H         LINE#         127
  C:658AH         LINE#         128
  C:6592H         LINE#         129
  C:659AH         LINE#         130
  C:659CH         LINE#         131
  C:65A4H         LINE#         132
  C:65A6H         LINE#         133
  C:65AEH         LINE#         134
  C:65B1H         LINE#         135
  -------         ENDPROC       _LCD_INTERRUPT_INITIAL
  -------         PROC          _LCD_SETALLPIXELS
  D:0007H         SYMBOL        u8OnOff
  -------         DO            
  D:0006H         SYMBOL        u8SetValue
  D:0007H         SYMBOL        i
  -------         ENDDO         
  C:622CH         LINE#         143
  C:622CH         LINE#         144
  C:622CH         LINE#         147
  C:622FH         LINE#         149
  C:6233H         LINE#         151
  C:6235H         LINE#         153
  C:6238H         LINE#         154
  C:6247H         LINE#         155
  C:6247H         LINE#         156
  C:6256H         LINE#         157
  C:6256H         LINE#         159
  C:6256H         LINE#         160
  C:6258H         LINE#         161
  C:625AH         LINE#         162
  C:625AH         LINE#         164
  C:625DH         LINE#         165
  C:6260H         LINE#         166
  C:6262H         LINE#         167
  C:6265H         LINE#         168
  C:6267H         LINE#         170
  -------         ENDPROC       _LCD_SETALLPIXELS
  -------         PROC          _LCD_POWERDOWN_DISPLAY
  D:0007H         SYMBOL        u8LCDDisplay
  C:66AFH         LINE#         178
  C:66AFH         LINE#         179
  C:66AFH         LINE#         180
  C:66BDH         LINE#         181
  C:66BDH         LINE#         182
  C:66BDH         LINE#         183
  C:66C5H         LINE#         184
  C:66C5H         LINE#         185
  C:66CBH         LINE#         187
  C:66CEH         LINE#         188
  -------         ENDPROC       _LCD_POWERDOWN_DISPLAY
  -------         PROC          _LCD_SETONEPIXEL
  D:0007H         SYMBOL        u8LCDCOM
  D:0005H         SYMBOL        u8LCDSEG
BL51 BANKED LINKER/LOCATER V6.22.2.0                                                  11/01/2022  15:49:49  PAGE 43


  D:0003H         SYMBOL        u8OnOff
  C:65DBH         LINE#         199
  C:65DBH         LINE#         200
  C:65DBH         LINE#         201
  C:65DEH         LINE#         202
  C:65E2H         LINE#         203
  C:65E5H         LINE#         204
  C:65F3H         LINE#         206
  C:6601H         LINE#         208
  -------         ENDPROC       _LCD_SETONEPIXEL
  -------         PROC          LCD_ENABLE
  C:6939H         LINE#         211
  C:6939H         LINE#         212
  C:6939H         LINE#         213
  C:6942H         LINE#         214
  -------         ENDPROC       LCD_ENABLE
  -------         PROC          LCD_DISABLE
  C:6994H         LINE#         216
  C:6994H         LINE#         217
  C:6994H         LINE#         218
  C:699AH         LINE#         219
  -------         ENDPROC       LCD_DISABLE
  -------         ENDMOD        LCD

  -------         MODULE        SYS
  C:0000H         SYMBOL        _ICE_DUMMY_
  D:0080H         PUBLIC        P0
  D:0090H         PUBLIC        P1
  D:00A0H         PUBLIC        P2
  D:00B0H         PUBLIC        P3
  D:00D8H         PUBLIC        P4
  B:00A8H.7       PUBLIC        EA
  C:4397H         PUBLIC        _FsysSelect
  D:00A8H         PUBLIC        IE
  D:0096H         PUBLIC        CKSWT
  C:6800H         PUBLIC        SW_Reset
  D:00C7H         PUBLIC        TA
  D:00B8H         PUBLIC        IP
  D:0097H         PUBLIC        CKEN
  C:5565H         PUBLIC        _ClockDisable
  C:5C60H         PUBLIC        FsysSwitchError
  D:0098H         PUBLIC        SCON
  D:0088H         PUBLIC        TCON
  C:4EE7H         PUBLIC        _ClockEnable
  D:009FH         PUBLIC        CHPCON
  D:0091H         PUBLIC        SFRS
  D:00C0H         PUBLIC        I2C0CON
  D:00E8H         PUBLIC        I2C1CON
  D:00F8H         PUBLIC        S1CON
  C:5F17H         PUBLIC        _ClockSwitch
  D:00C8H         PUBLIC        T2CON
  D:00D0H         PUBLIC        PSW
  -------         PROC          FSYSSWITCHERROR
  C:5C60H         LINE#         14
  C:5C60H         LINE#         15
  C:5C60H         LINE#         16
  C:5C76H         LINE#         17
BL51 BANKED LINKER/LOCATER V6.22.2.0                                                  11/01/2022  15:49:49  PAGE 44


  C:5C7CH         LINE#         18
  C:5C92H         LINE#         19
  C:5CA7H         LINE#         20
  C:5CBAH         LINE#         21
  C:5CBBH         LINE#         22
  -------         ENDPROC       FSYSSWITCHERROR
  -------         PROC          _FSYSSELECT
  D:0007H         SYMBOL        u8FsysMode
  C:4397H         LINE#         37
  C:4397H         LINE#         38
  C:4397H         LINE#         39
  C:43B1H         LINE#         40
  C:43B1H         LINE#         42
  C:43B1H         LINE#         43
  C:43B6H         LINE#         44
  C:43BBH         LINE#         45
  C:43C0H         LINE#         46
  C:43C5H         LINE#         47
  C:43CDH         LINE#         48
  C:43D0H         LINE#         49
  C:43E6H         LINE#         51
  C:43E7H         LINE#         53
  C:43E7H         LINE#         54
  C:43ECH         LINE#         55
  C:43F1H         LINE#         56
  C:43F6H         LINE#         57
  C:43FBH         LINE#         58
  C:4406H         LINE#         59
  C:4409H         LINE#         62
  C:440AH         LINE#         65
  C:440AH         LINE#         66
  C:440FH         LINE#         67
  C:4414H         LINE#         68
  C:442AH         LINE#         69
  C:442BH         LINE#         72
  C:442BH         LINE#         75
  C:4430H         LINE#         76
  C:4435H         LINE#         77
  C:443DH         LINE#         78
  C:4440H         LINE#         79
  C:4456H         LINE#         82
  C:446BH         LINE#         85
  C:446CH         LINE#         88
  C:446CH         LINE#         89
  C:4471H         LINE#         90
  C:4476H         LINE#         91
  C:447BH         LINE#         92
  C:4480H         LINE#         93
  C:4488H         LINE#         94
  C:448BH         LINE#         95
  C:44A1H         LINE#         96
  C:44B6H         LINE#         97
  C:44B6H         LINE#         98
  C:44B6H         LINE#         99
  -------         ENDPROC       _FSYSSELECT
  -------         PROC          _CLOCKENABLE
  D:0007H         SYMBOL        u8FsysMode
BL51 BANKED LINKER/LOCATER V6.22.2.0                                                  11/01/2022  15:49:49  PAGE 45


  C:4EE7H         LINE#         101
  C:4EE7H         LINE#         102
  C:4EE7H         LINE#         103
  C:4EFEH         LINE#         104
  C:4EFEH         LINE#         106
  C:4EFEH         LINE#         107
  C:4F14H         LINE#         108
  C:4F21H         LINE#         109
  C:4F22H         LINE#         111
  C:4F22H         LINE#         112
  C:4F38H         LINE#         113
  C:4F42H         LINE#         114
  C:4F43H         LINE#         116
  C:4F43H         LINE#         117
  C:4F59H         LINE#         118
  C:4F63H         LINE#         119
  C:4F64H         LINE#         121
  C:4F64H         LINE#         122
  C:4F7AH         LINE#         123
  C:4F84H         LINE#         124
  C:4F85H         LINE#         126
  C:4F85H         LINE#         127
  C:4F9BH         LINE#         128
  C:4FA3H         LINE#         129
  C:4FA3H         LINE#         130
  C:4FA3H         LINE#         131
  -------         ENDPROC       _CLOCKENABLE
  -------         PROC          _CLOCKDISABLE
  D:0007H         SYMBOL        u8FsysMode
  C:5565H         LINE#         133
  C:5565H         LINE#         134
  C:5565H         LINE#         135
  C:5576H         LINE#         136
  C:5576H         LINE#         138
  C:5576H         LINE#         139
  C:558CH         LINE#         140
  C:558DH         LINE#         142
  C:558DH         LINE#         143
  C:55A3H         LINE#         144
  C:55A4H         LINE#         146
  C:55A4H         LINE#         147
  C:55BAH         LINE#         148
  C:55BBH         LINE#         150
  C:55BBH         LINE#         151
  C:55D1H         LINE#         152
  C:55D2H         LINE#         154
  C:55D2H         LINE#         155
  C:55E8H         LINE#         156
  C:55E8H         LINE#         157
  C:55E8H         LINE#         158
  -------         ENDPROC       _CLOCKDISABLE
  -------         PROC          _CLOCKSWITCH
  D:0007H         SYMBOL        u8FsysMode
  C:5F17H         LINE#         160
  C:5F17H         LINE#         161
  C:5F17H         LINE#         162
  C:5F1DH         LINE#         163
BL51 BANKED LINKER/LOCATER V6.22.2.0                                                  11/01/2022  15:49:49  PAGE 46


  C:5F2EH         LINE#         164
  C:5F2EH         LINE#         166
  C:5F2EH         LINE#         167
  C:5F37H         LINE#         168
  C:5F39H         LINE#         170
  C:5F39H         LINE#         171
  C:5F42H         LINE#         172
  C:5F44H         LINE#         174
  C:5F44H         LINE#         175
  C:5F4DH         LINE#         176
  C:5F4FH         LINE#         178
  C:5F4FH         LINE#         179
  C:5F58H         LINE#         180
  C:5F5AH         LINE#         182
  C:5F5AH         LINE#         183
  C:5F63H         LINE#         184
  C:5F63H         LINE#         185
  C:5F63H         LINE#         186
  C:5F67H         LINE#         187
  -------         ENDPROC       _CLOCKSWITCH
  -------         PROC          SW_RESET
  C:6800H         LINE#         193
  C:6800H         LINE#         194
  C:6800H         LINE#         195
  C:6816H         LINE#         196
  -------         ENDPROC       SW_RESET
  -------         ENDMOD        SYS

  -------         MODULE        ?C_STARTUP
  C:53AEH         SEGMENT       ?C_C51STARTUP
  I:0021H         SEGMENT       ?STACK
  C:0000H         PUBLIC        ?C_STARTUP
  D:00E0H         SYMBOL        ACC
  D:00F0H         SYMBOL        B
  D:0083H         SYMBOL        DPH
  D:0082H         SYMBOL        DPL
  N:0000H         SYMBOL        IBPSTACK
  N:0100H         SYMBOL        IBPSTACKTOP
  N:0080H         SYMBOL        IDATALEN
  C:53B1H         SYMBOL        IDATALOOP
  N:0000H         SYMBOL        PBPSTACK
  N:0000H         SYMBOL        PBPSTACKTOP
  N:0000H         SYMBOL        PDATALEN
  N:0000H         SYMBOL        PDATASTART
  N:0000H         SYMBOL        PPAGE
  N:0000H         SYMBOL        PPAGEENABLE
  D:00A0H         SYMBOL        PPAGE_SFR
  D:0081H         SYMBOL        SP
  C:53AEH         SYMBOL        STARTUP1
  N:0000H         SYMBOL        XBPSTACK
  N:0000H         SYMBOL        XBPSTACKTOP
  N:0FFFH         SYMBOL        XDATALEN
  C:53BCH         SYMBOL        XDATALOOP
  N:0000H         SYMBOL        XDATASTART
  C:0000H         LINE#         94
  C:53AEH         LINE#         101
  C:53B0H         LINE#         102
BL51 BANKED LINKER/LOCATER V6.22.2.0                                                  11/01/2022  15:49:49  PAGE 47


  C:53B1H         LINE#         103
  C:53B2H         LINE#         104
  C:53B4H         LINE#         108
  C:53B7H         LINE#         109
  C:53B9H         LINE#         111
  C:53BBH         LINE#         115
  C:53BCH         LINE#         116
  C:53BDH         LINE#         117
  C:53BEH         LINE#         118
  C:53C0H         LINE#         119
  C:53C2H         LINE#         153
  C:53C5H         LINE#         157
  -------         ENDMOD        ?C_STARTUP

  -------         MODULE        ADC_USER
  C:0000H         SYMBOL        _ICE_DUMMY_
  D:00F4H         PUBLIC        P2MF54
  D:0080H         PUBLIC        P0
  D:00B5H         PUBLIC        P2M1
  D:0090H         PUBLIC        P1
  D:00B6H         PUBLIC        P2M2
  D:00A0H         PUBLIC        P2
  D:00B0H         PUBLIC        P3
  D:00D8H         PUBLIC        P4
  D:00B1H         PUBLIC        P5
  D:00A8H         PUBLIC        IE
  X:04C5H         PUBLIC        NTC_ADCValue
  C:14B2H         PUBLIC        _Get_Temp_Bat
  D:00B8H         PUBLIC        IP
  C:4806H         PUBLIC        _ADC_RUN
  X:0567H         PUBLIC        ADC_Data
  D:00CEH         PUBLIC        AINDIDS0
  D:0098H         PUBLIC        SCON
  D:0088H         PUBLIC        TCON
  B:00A0H.4       PUBLIC        P24
  D:0091H         PUBLIC        SFRS
  C:584BH         PUBLIC        ADC_Init
  C:599AH         PUBLIC        Get_NtcValu
  D:00C0H         PUBLIC        I2C0CON
  D:00E8H         PUBLIC        I2C1CON
  D:00A1H         PUBLIC        ADCCON0
  D:00E1H         PUBLIC        ADCCON1
  C:6943H         PUBLIC        Get_NTC_Init
  C:664BH         PUBLIC        Get_NTC_Temp
  D:00C3H         PUBLIC        ADCRH
  C:087EH         PUBLIC        Bat_PowerDisplay
  D:00F8H         PUBLIC        S1CON
  D:00C8H         PUBLIC        T2CON
  D:00C2H         PUBLIC        ADCRL
  D:00F2H         PUBLIC        P2MF10
  D:00D0H         PUBLIC        PSW
  -------         PROC          ADC_INIT
  C:584BH         LINE#         58
  C:584BH         LINE#         59
  C:584BH         LINE#         60
  C:5871H         LINE#         61
  C:5879H         LINE#         62
BL51 BANKED LINKER/LOCATER V6.22.2.0                                                  11/01/2022  15:49:49  PAGE 48


  C:5880H         LINE#         63
  C:5889H         LINE#         64
  C:588FH         LINE#         65
  C:5898H         LINE#         66
  C:58A1H         LINE#         69
  C:58AAH         LINE#         71
  C:58ADH         LINE#         72
  C:58B3H         LINE#         73
  C:58B8H         LINE#         74
  C:58BDH         LINE#         75
  -------         ENDPROC       ADC_INIT
  -------         PROC          GET_NTCVALU
  -------         DO            
  X:0742H         SYMBOL        ADCdataAIN
  D:0004H         SYMBOL        Ntc_valu
  -------         ENDDO         
  C:599AH         LINE#         77
  C:599AH         LINE#         78
  C:599AH         LINE#         81
  C:59A0H         LINE#         82
  C:59A5H         LINE#         83
  C:59AAH         LINE#         84
  C:59C7H         LINE#         85
  C:59E7H         LINE#         86
  C:59EDH         LINE#         87
  C:59FBH         LINE#         88
  C:5A01H         LINE#         89
  C:5A06H         LINE#         90
  C:5A06H         LINE#         91
  -------         ENDPROC       GET_NTCVALU
  -------         PROC          _ADC_RUN
  D:0007H         SYMBOL        Channel
  -------         DO            
  X:06D3H         SYMBOL        ADCdataAIN
  -------         ENDDO         
  C:4806H         LINE#         93
  C:4806H         LINE#         94
  C:4806H         LINE#         96
  C:480EH         LINE#         97
  C:480EH         LINE#         98
  C:4833H         LINE#         99
  C:4838H         LINE#         100
  C:483DH         LINE#         101
  C:4842H         LINE#         102
  C:485FH         LINE#         103
  C:487FH         LINE#         104
  C:4885H         LINE#         105
  C:488BH         LINE#         106
  C:4890H         LINE#         107
  C:4891H         LINE#         108
  C:4897H         LINE#         109
  C:4897H         LINE#         110
  C:48B9H         LINE#         111
  C:48BEH         LINE#         112
  C:48C3H         LINE#         113
  C:48C8H         LINE#         114
  C:48E5H         LINE#         115
BL51 BANKED LINKER/LOCATER V6.22.2.0                                                  11/01/2022  15:49:49  PAGE 49


  C:4905H         LINE#         116
  C:490BH         LINE#         117
  C:4911H         LINE#         118
  C:4916H         LINE#         119
  C:4916H         LINE#         121
  -------         ENDPROC       _ADC_RUN
  -------         PROC          _GET_TEMP_BAT
  D:0007H         SYMBOL        Channel
  -------         DO            
  X:06D1H         SYMBOL        i
  -------         DO            
  X:06D2H         SYMBOL        i
  -------         ENDDO         
  -------         ENDDO         
  C:14B2H         LINE#         123
  C:14B2H         LINE#         124
  C:14B2H         LINE#         126
  C:14BFH         LINE#         127
  C:14BFH         LINE#         128
  C:14BFH         LINE#         129
  C:14BFH         LINE#         130
  C:14C4H         LINE#         131
  C:14D4H         LINE#         132
  C:14D4H         LINE#         133
  C:14D6H         LINE#         134
  C:14E5H         LINE#         135
  C:14F4H         LINE#         136
  C:14F9H         LINE#         137
  C:150CH         LINE#         138
  C:150CH         LINE#         139
  C:152AH         LINE#         140
  C:152FH         LINE#         141
  C:1550H         LINE#         142
  C:1555H         LINE#         143
  C:155DH         LINE#         144
  C:1570H         LINE#         145
  C:1570H         LINE#         146
  C:158DH         LINE#         147
  C:1595H         LINE#         148
  C:15BDH         LINE#         149
  C:15D7H         LINE#         150
  C:15DDH         LINE#         151
  C:1626H         LINE#         152
  C:162CH         LINE#         153
  C:1642H         LINE#         154
  C:1642H         LINE#         155
  C:1683H         LINE#         156
  C:1683H         LINE#         157
  C:168CH         LINE#         158
  C:168CH         LINE#         159
  C:16EEH         LINE#         161
  C:16F0H         LINE#         163
  C:16F0H         LINE#         164
  C:1758H         LINE#         165
  C:175DH         LINE#         166
  C:175FH         LINE#         168
  C:175FH         LINE#         169
BL51 BANKED LINKER/LOCATER V6.22.2.0                                                  11/01/2022  15:49:49  PAGE 50


  C:175FH         LINE#         170
  C:1768H         LINE#         171
  C:1768H         LINE#         172
  C:1768H         LINE#         173
  C:1768H         LINE#         174
  C:1768H         LINE#         175
  C:1768H         LINE#         177
  C:176DH         LINE#         178
  C:177DH         LINE#         179
  C:177DH         LINE#         180
  C:177FH         LINE#         181
  C:178EH         LINE#         182
  C:179DH         LINE#         183
  C:17A5H         LINE#         184
  C:17B9H         LINE#         185
  C:17B9H         LINE#         186
  C:17D7H         LINE#         187
  C:17DCH         LINE#         188
  C:17FDH         LINE#         189
  C:1802H         LINE#         190
  C:180AH         LINE#         191
  C:181CH         LINE#         192
  C:181CH         LINE#         193
  C:1853H         LINE#         194
  C:185BH         LINE#         195
  C:18A9H         LINE#         196
  C:18C2H         LINE#         198
  C:1911H         LINE#         199
  C:1924H         LINE#         200
  C:194DH         LINE#         203
  C:194DH         LINE#         204
  C:194DH         LINE#         207
  C:194DH         LINE#         210
  C:194DH         LINE#         214
  -------         ENDPROC       _GET_TEMP_BAT
  -------         PROC          BAT_POWERDISPLAY
  -------         DO            
  X:04C3H         SYMBOL        lowpowertime
  -------         DO            
  X:04BEH         SYMBOL        Pecent80Flag
  X:04BFH         SYMBOL        Pecent60Flag
  X:04C0H         SYMBOL        Pecent40Flag
  X:04C1H         SYMBOL        Pecent20Flag
  X:04C2H         SYMBOL        Pecent0Flag
  -------         ENDDO         
  -------         ENDDO         
  C:087EH         LINE#         216
  C:087EH         LINE#         217
  C:087EH         LINE#         219
  C:0884H         LINE#         220
  C:0884H         LINE#         221
  C:088DH         LINE#         222
  C:0896H         LINE#         223
  C:08A5H         LINE#         224
  C:08A5H         LINE#         225
  C:08ABH         LINE#         226
  C:08B3H         LINE#         227
BL51 BANKED LINKER/LOCATER V6.22.2.0                                                  11/01/2022  15:49:49  PAGE 51


  C:08BCH         LINE#         228
  C:08C5H         LINE#         229
  C:08CEH         LINE#         231
  C:08D1H         LINE#         233
  C:0903H         LINE#         234
  C:0903H         LINE#         235
  C:0911H         LINE#         236
  C:091DH         LINE#         237
  C:091DH         LINE#         238
  C:0925H         LINE#         239
  C:092EH         LINE#         240
  C:0937H         LINE#         241
  C:0940H         LINE#         242
  C:0943H         LINE#         243
  C:094FH         LINE#         244
  C:094FH         LINE#         245
  C:0957H         LINE#         246
  C:0960H         LINE#         247
  C:0969H         LINE#         248
  C:0972H         LINE#         249
  C:0974H         LINE#         250
  C:0980H         LINE#         251
  C:0980H         LINE#         252
  C:0988H         LINE#         253
  C:0991H         LINE#         254
  C:099AH         LINE#         255
  C:09A3H         LINE#         256
  C:09A5H         LINE#         258
  C:09A5H         LINE#         259
  C:09AEH         LINE#         260
  C:09B7H         LINE#         261
  C:09C0H         LINE#         262
  C:09C8H         LINE#         263
  C:09CFH         LINE#         264
  C:09CFH         LINE#         265
  C:09CFH         LINE#         266
  C:09DFH         LINE#         267
  C:09DFH         LINE#         268
  C:09E4H         LINE#         269
  C:09E5H         LINE#         270
  C:09EEH         LINE#         271
  C:09EEH         LINE#         272
  C:09F4H         LINE#         273
  C:09F5H         LINE#         274
  C:09FEH         LINE#         275
  C:09FEH         LINE#         276
  C:0A04H         LINE#         277
  C:0A05H         LINE#         278
  C:0A0EH         LINE#         279
  C:0A0EH         LINE#         280
  C:0A14H         LINE#         281
  C:0A15H         LINE#         282
  C:0A1EH         LINE#         283
  C:0A1EH         LINE#         284
  C:0A24H         LINE#         285
  C:0A25H         LINE#         287
  C:0A25H         LINE#         288
BL51 BANKED LINKER/LOCATER V6.22.2.0                                                  11/01/2022  15:49:49  PAGE 52


  C:0A2BH         LINE#         289
  C:0A2BH         LINE#         290
  C:0A2CH         LINE#         291
  C:0A32H         LINE#         292
  C:0A32H         LINE#         298
  C:0A37H         LINE#         299
  C:0A3FH         LINE#         302
  C:0A51H         LINE#         303
  C:0A51H         LINE#         304
  C:0A57H         LINE#         305
  C:0A57H         LINE#         306
  C:0A5DH         LINE#         307
  C:0A66H         LINE#         308
  C:0A6FH         LINE#         309
  C:0A78H         LINE#         310
  C:0A81H         LINE#         311
  C:0A8AH         LINE#         312
  C:0A8BH         LINE#         313
  C:0AA2H         LINE#         314
  C:0AA2H         LINE#         315
  C:0AA8H         LINE#         316
  C:0AB1H         LINE#         317
  C:0ABAH         LINE#         318
  C:0AC3H         LINE#         319
  C:0ACCH         LINE#         320
  C:0AD5H         LINE#         321
  C:0ADAH         LINE#         322
  C:0ADCH         LINE#         323
  C:0ADEH         LINE#         324
  C:0AE0H         LINE#         325
  C:0AE2H         LINE#         326
  C:0AE3H         LINE#         328
  C:0AE3H         LINE#         329
  C:0AE9H         LINE#         330
  C:0AF2H         LINE#         331
  C:0AFBH         LINE#         332
  C:0B04H         LINE#         333
  C:0B0DH         LINE#         334
  C:0B16H         LINE#         335
  C:0B16H         LINE#         337
  C:0B17H         LINE#         338
  C:0B29H         LINE#         339
  C:0B29H         LINE#         340
  C:0B2FH         LINE#         341
  C:0B33H         LINE#         342
  C:0B33H         LINE#         343
  C:0B39H         LINE#         344
  C:0B42H         LINE#         345
  C:0B4BH         LINE#         346
  C:0B54H         LINE#         347
  C:0B5DH         LINE#         348
  C:0B66H         LINE#         349
  C:0B67H         LINE#         350
  C:0B7EH         LINE#         351
  C:0B7EH         LINE#         352
  C:0B84H         LINE#         353
  C:0B8DH         LINE#         354
BL51 BANKED LINKER/LOCATER V6.22.2.0                                                  11/01/2022  15:49:49  PAGE 53


  C:0B96H         LINE#         355
  C:0B9FH         LINE#         356
  C:0BA8H         LINE#         357
  C:0BB1H         LINE#         359
  C:0BB6H         LINE#         360
  C:0BB8H         LINE#         361
  C:0BBAH         LINE#         362
  C:0BBCH         LINE#         363
  C:0BBDH         LINE#         365
  C:0BBDH         LINE#         366
  C:0BC3H         LINE#         367
  C:0BCCH         LINE#         368
  C:0BD5H         LINE#         369
  C:0BDEH         LINE#         370
  C:0BE7H         LINE#         371
  C:0BF0H         LINE#         372
  C:0BF0H         LINE#         374
  C:0BF1H         LINE#         375
  C:0C03H         LINE#         376
  C:0C03H         LINE#         377
  C:0C09H         LINE#         378
  C:0C0DH         LINE#         379
  C:0C0DH         LINE#         380
  C:0C13H         LINE#         381
  C:0C1CH         LINE#         382
  C:0C25H         LINE#         383
  C:0C2EH         LINE#         384
  C:0C37H         LINE#         385
  C:0C40H         LINE#         386
  C:0C41H         LINE#         387
  C:0C58H         LINE#         388
  C:0C58H         LINE#         389
  C:0C5EH         LINE#         390
  C:0C67H         LINE#         391
  C:0C70H         LINE#         392
  C:0C79H         LINE#         393
  C:0C82H         LINE#         394
  C:0C8BH         LINE#         395
  C:0C90H         LINE#         396
  C:0C92H         LINE#         397
  C:0C94H         LINE#         398
  C:0C95H         LINE#         400
  C:0C95H         LINE#         401
  C:0C9BH         LINE#         402
  C:0CA4H         LINE#         403
  C:0CADH         LINE#         404
  C:0CB6H         LINE#         405
  C:0CBFH         LINE#         406
  C:0CC7H         LINE#         407
  C:0CC7H         LINE#         409
  C:0CC8H         LINE#         410
  C:0CDAH         LINE#         411
  C:0CDAH         LINE#         412
  C:0CE0H         LINE#         413
  C:0CE4H         LINE#         414
  C:0CE4H         LINE#         415
  C:0CEAH         LINE#         416
BL51 BANKED LINKER/LOCATER V6.22.2.0                                                  11/01/2022  15:49:49  PAGE 54


  C:0CF3H         LINE#         417
  C:0CFCH         LINE#         418
  C:0D05H         LINE#         419
  C:0D0EH         LINE#         420
  C:0D16H         LINE#         421
  C:0D17H         LINE#         422
  C:0D2EH         LINE#         423
  C:0D2EH         LINE#         424
  C:0D34H         LINE#         425
  C:0D3DH         LINE#         426
  C:0D46H         LINE#         427
  C:0D4FH         LINE#         428
  C:0D58H         LINE#         429
  C:0D60H         LINE#         430
  C:0D65H         LINE#         431
  C:0D67H         LINE#         432
  C:0D68H         LINE#         434
  C:0D68H         LINE#         435
  C:0D6EH         LINE#         436
  C:0D76H         LINE#         437
  C:0D7FH         LINE#         438
  C:0D88H         LINE#         439
  C:0D91H         LINE#         440
  C:0D99H         LINE#         441
  C:0D99H         LINE#         443
  C:0D9AH         LINE#         444
  C:0DACH         LINE#         445
  C:0DACH         LINE#         446
  C:0DB2H         LINE#         447
  C:0DB6H         LINE#         448
  C:0DB6H         LINE#         449
  C:0DBCH         LINE#         450
  C:0DC4H         LINE#         451
  C:0DCDH         LINE#         452
  C:0DD6H         LINE#         453
  C:0DDFH         LINE#         454
  C:0DE7H         LINE#         455
  C:0DE8H         LINE#         456
  C:0DFFH         LINE#         457
  C:0DFFH         LINE#         458
  C:0E05H         LINE#         459
  C:0E0DH         LINE#         460
  C:0E16H         LINE#         461
  C:0E1FH         LINE#         462
  C:0E28H         LINE#         463
  C:0E30H         LINE#         464
  C:0E35H         LINE#         465
  C:0E36H         LINE#         467
  C:0E36H         LINE#         468
  C:0E44H         LINE#         469
  C:0E49H         LINE#         470
  C:0E50H         LINE#         471
  C:0E59H         LINE#         473
  C:0E62H         LINE#         474
  C:0E6AH         LINE#         475
  C:0E76H         LINE#         476
  C:0E76H         LINE#         477
BL51 BANKED LINKER/LOCATER V6.22.2.0                                                  11/01/2022  15:49:49  PAGE 55


  C:0E7FH         LINE#         478
  C:0E88H         LINE#         479
  C:0E89H         LINE#         480
  C:0E98H         LINE#         481
  C:0E98H         LINE#         482
  C:0EA0H         LINE#         483
  C:0EA9H         LINE#         484
  C:0EB0H         LINE#         485
  C:0EB0H         LINE#         486
  C:0EB0H         LINE#         487
  C:0EB1H         LINE#         489
  C:0EB1H         LINE#         490
  C:0EB7H         LINE#         491
  C:0EC5H         LINE#         492
  C:0ECAH         LINE#         493
  C:0ED1H         LINE#         494
  C:0EDAH         LINE#         496
  C:0EE3H         LINE#         497
  C:0EEBH         LINE#         498
  C:0EF7H         LINE#         499
  C:0EF7H         LINE#         500
  C:0F00H         LINE#         501
  C:0F09H         LINE#         502
  C:0F0BH         LINE#         503
  C:0F17H         LINE#         504
  C:0F17H         LINE#         505
  C:0F1FH         LINE#         506
  C:0F28H         LINE#         507
  C:0F2FH         LINE#         508
  C:0F2FH         LINE#         509
  C:0F2FH         LINE#         510
  C:0F2FH         LINE#         512
  C:0F2FH         LINE#         513
  C:0F2FH         LINE#         514
  C:0F2FH         LINE#         516
  -------         ENDPROC       BAT_POWERDISPLAY
  -------         PROC          GET_NTC_TEMP
  C:664BH         LINE#         518
  C:664BH         LINE#         519
  C:664BH         LINE#         520
  C:6653H         LINE#         521
  C:6653H         LINE#         522
  C:6660H         LINE#         523
  C:6665H         LINE#         524
  C:6665H         LINE#         525
  C:666DH         LINE#         526
  -------         ENDPROC       GET_NTC_TEMP
  -------         PROC          GET_NTC_INIT
  C:6943H         LINE#         528
  C:6943H         LINE#         529
  C:6943H         LINE#         530
  C:694BH         LINE#         532
  -------         ENDPROC       GET_NTC_INIT
  -------         ENDMOD        ADC_USER

  -------         MODULE        CO2
  C:0000H         SYMBOL        _ICE_DUMMY_
BL51 BANKED LINKER/LOCATER V6.22.2.0                                                  11/01/2022  15:49:49  PAGE 56


  D:0080H         PUBLIC        P0
  D:0090H         PUBLIC        P1
  D:00A0H         PUBLIC        P2
  D:00B0H         PUBLIC        P3
  D:00D8H         PUBLIC        P4
  D:00A8H         PUBLIC        IE
  D:00B8H         PUBLIC        IP
  C:44B7H         PUBLIC        _Display_Co2
  X:0661H         PUBLIC        CO2_Data
  B:00F8H.0       PUBLIC        RI_1
  B:00A0H.1       PUBLIC        P21
  D:0098H         PUBLIC        SCON
  D:0088H         PUBLIC        TCON
  C:6602H         PUBLIC        _Get_Cs
  C:6916H         PUBLIC        CO2_Init
  C:5268H         PUBLIC        UART1_ISR
  D:0091H         PUBLIC        SFRS
  C:5DC4H         PUBLIC        Get_CO2_VersionNum
  C:5448H         PUBLIC        Recieve_Data_Analysis
  D:00C0H         PUBLIC        I2C0CON
  D:00E8H         PUBLIC        I2C1CON
  C:5E71H         PUBLIC        Get_CO2Valu
  D:009AH         PUBLIC        SBUF1
  D:00F8H         PUBLIC        S1CON
  D:00C8H         PUBLIC        T2CON
  C:694CH         PUBLIC        Get_Co2Value
  D:00D0H         PUBLIC        PSW
  -------         PROC          CO2_INIT
  C:6916H         LINE#         38
  C:6916H         LINE#         39
  C:6916H         LINE#         40
  C:691FH         LINE#         41
  C:6921H         LINE#         42
  -------         ENDPROC       CO2_INIT
  -------         PROC          GET_CO2VALU
  C:5E71H         LINE#         45
  C:5E71H         LINE#         46
  C:5E71H         LINE#         47
  C:5E77H         LINE#         48
  C:5E7BH         LINE#         49
  C:5E7DH         LINE#         50
  C:5E8EH         LINE#         51
  C:5E96H         LINE#         52
  C:5E9EH         LINE#         53
  C:5EA6H         LINE#         54
  C:5EAEH         LINE#         55
  C:5EC4H         LINE#         57
  -------         ENDPROC       GET_CO2VALU
  -------         PROC          GET_CO2_VERSIONNUM
  C:5DC4H         LINE#         59
  C:5DC4H         LINE#         60
  C:5DC4H         LINE#         61
  C:5DCAH         LINE#         62
  C:5DCEH         LINE#         63
  C:5DD2H         LINE#         64
  C:5DE4H         LINE#         65
  C:5DECH         LINE#         66
BL51 BANKED LINKER/LOCATER V6.22.2.0                                                  11/01/2022  15:49:49  PAGE 57


  C:5DF4H         LINE#         67
  C:5DFCH         LINE#         68
  C:5E04H         LINE#         69
  C:5E1AH         LINE#         71
  -------         ENDPROC       GET_CO2_VERSIONNUM
  -------         PROC          UART1_ISR
  C:5268H         LINE#         74
  C:5285H         LINE#         76
  C:5287H         LINE#         77
  C:528AH         LINE#         78
  C:528AH         LINE#         79
  C:5290H         LINE#         80
  C:5296H         LINE#         81
  C:5296H         LINE#         82
  C:529EH         LINE#         83
  C:529EH         LINE#         84
  C:52ABH         LINE#         85
  C:52B3H         LINE#         86
  C:52B9H         LINE#         87
  C:52B9H         LINE#         89
  C:52BBH         LINE#         90
  C:52C3H         LINE#         91
  C:52C3H         LINE#         92
  C:52C7H         LINE#         93
  C:52DAH         LINE#         94
  C:52EEH         LINE#         95
  C:52EEH         LINE#         96
  C:52F4H         LINE#         97
  C:52F4H         LINE#         98
  C:52F4H         LINE#         100
  C:52F6H         LINE#         101
  C:52F6H         LINE#         102
  C:52F8H         LINE#         103
  -------         ENDPROC       UART1_ISR
  -------         PROC          RECIEVE_DATA_ANALYSIS
  -------         DO            
  X:065FH         SYMBOL        Times
  -------         ENDDO         
  C:5448H         LINE#         105
  C:5448H         LINE#         106
  C:5448H         LINE#         108
  C:5450H         LINE#         109
  C:5450H         LINE#         111
  C:5467H         LINE#         112
  C:5467H         LINE#         113
  C:5479H         LINE#         114
  C:547EH         LINE#         115
  C:5493H         LINE#         116
  C:5498H         LINE#         117
  C:549EH         LINE#         118
  C:549FH         LINE#         120
  C:549FH         LINE#         121
  C:54A4H         LINE#         122
  C:54A6H         LINE#         123
  C:54ACH         LINE#         124
  C:54ACH         LINE#         126
  C:54ADH         LINE#         127
BL51 BANKED LINKER/LOCATER V6.22.2.0                                                  11/01/2022  15:49:49  PAGE 58


  C:54B3H         LINE#         128
  C:54B3H         LINE#         129
  C:54C1H         LINE#         130
  C:54D0H         LINE#         131
  C:54D0H         LINE#         132
  C:54D5H         LINE#         133
  C:54D7H         LINE#         134
  C:54DDH         LINE#         135
  C:54DDH         LINE#         137
  C:54DDH         LINE#         140
  -------         ENDPROC       RECIEVE_DATA_ANALYSIS
  -------         PROC          _GET_CS
  D:0001H         SYMBOL        Lens
  -------         DO            
  D:0006H         SYMBOL        Sum
  D:0005H         SYMBOL        i
  D:0004H         SYMBOL        Cs_r
  -------         ENDDO         
  C:6602H         LINE#         142
  C:6604H         LINE#         143
  C:6604H         LINE#         144
  C:6607H         LINE#         145
  C:6608H         LINE#         146
  C:6609H         LINE#         147
  C:660EH         LINE#         148
  C:660EH         LINE#         149
  C:661EH         LINE#         150
  C:6621H         LINE#         151
  C:6625H         LINE#         152
  C:6626H         LINE#         153
  -------         ENDPROC       _GET_CS
  -------         PROC          _DISPLAY_CO2
  X:06DFH         SYMBOL        Dis_Mod
  -------         DO            
  D:0007H         SYMBOL        co2gw
  X:06E0H         SYMBOL        co2sw
  X:06E1H         SYMBOL        co2bw
  X:06E2H         SYMBOL        co2qw
  X:06E3H         SYMBOL        C02Value_Dis
  -------         ENDDO         
  C:44B7H         LINE#         155
  C:44BCH         LINE#         156
  C:44BCH         LINE#         179
  C:44C0H         LINE#         180
  C:44C0H         LINE#         182
  C:44CFH         LINE#         183
  C:44D1H         LINE#         184
  C:44D7H         LINE#         185
  C:44D7H         LINE#         186
  C:44E0H         LINE#         187
  C:44E9H         LINE#         188
  C:44F4H         LINE#         189
  C:44F6H         LINE#         190
  C:44FEH         LINE#         191
  C:44FEH         LINE#         192
  C:4507H         LINE#         193
  C:4510H         LINE#         194
BL51 BANKED LINKER/LOCATER V6.22.2.0                                                  11/01/2022  15:49:49  PAGE 59


  C:451BH         LINE#         195
  C:451BH         LINE#         196
  C:4532H         LINE#         197
  C:454FH         LINE#         198
  C:4571H         LINE#         199
  C:457EH         LINE#         200
  C:4585H         LINE#         201
  C:45A0H         LINE#         202
  C:45BBH         LINE#         203
  C:45D6H         LINE#         207
  -------         ENDPROC       _DISPLAY_CO2
  -------         PROC          GET_CO2VALUE
  C:694CH         LINE#         209
  C:694CH         LINE#         210
  C:694CH         LINE#         211
  C:6954H         LINE#         212
  -------         ENDPROC       GET_CO2VALUE
  -------         ENDMOD        CO2

  -------         MODULE        CRC8_NRSC5
  C:0000H         SYMBOL        _ICE_DUMMY_
  D:0080H         PUBLIC        P0
  D:0090H         PUBLIC        P1
  D:00A0H         PUBLIC        P2
  D:00B0H         PUBLIC        P3
  D:00D8H         PUBLIC        P4
  D:00A8H         PUBLIC        IE
  D:00B8H         PUBLIC        IP
  D:0098H         PUBLIC        SCON
  D:0088H         PUBLIC        TCON
  C:5CBCH         PUBLIC        _crc8_nrsc5
  D:00C0H         PUBLIC        I2C0CON
  D:00E8H         PUBLIC        I2C1CON
  D:00F8H         PUBLIC        S1CON
  D:00C8H         PUBLIC        T2CON
  D:00D0H         PUBLIC        PSW
  -------         PROC          _CRC8_NRSC5
  X:06D6H         SYMBOL        Data
  X:06D9H         SYMBOL        length
  -------         DO            
  D:0007H         SYMBOL        i
  D:0006H         SYMBOL        crc
  -------         ENDDO         
  C:5CBCH         LINE#         12
  C:5CCDH         LINE#         13
  C:5CCDH         LINE#         14
  C:5CCFH         LINE#         15
  C:5CD1H         LINE#         16
  C:5CDFH         LINE#         17
  C:5CDFH         LINE#         18
  C:5CF4H         LINE#         20
  C:5D00H         LINE#         21
  C:5D00H         LINE#         22
  C:5D04H         LINE#         23
  C:5D0BH         LINE#         25
  C:5D0FH         LINE#         26
  C:5D12H         LINE#         27
BL51 BANKED LINKER/LOCATER V6.22.2.0                                                  11/01/2022  15:49:49  PAGE 60


  C:5D12H         LINE#         28
  C:5D14H         LINE#         29
  -------         ENDPROC       _CRC8_NRSC5
  -------         ENDMOD        CRC8_NRSC5

  -------         MODULE        EEPROM_USER
  C:0000H         SYMBOL        _ICE_DUMMY_
  D:0080H         PUBLIC        P0
  D:0090H         PUBLIC        P1
  D:00A0H         PUBLIC        P2
  D:00B0H         PUBLIC        P3
  D:00D8H         PUBLIC        P4
  B:00A8H.7       PUBLIC        EA
  D:00A8H         PUBLIC        IE
  D:00C7H         PUBLIC        TA
  C:3A72H         PUBLIC        _EEPROM_Write_SensorData
  D:00B8H         PUBLIC        IP
  D:0098H         PUBLIC        SCON
  D:0088H         PUBLIC        TCON
  D:009FH         PUBLIC        CHPCON
  C:2616H         PUBLIC        EEPROM_ReadDataInit
  D:0091H         PUBLIC        SFRS
  D:00A5H         PUBLIC        IAPUEN
  D:00A4H         PUBLIC        IAPTRG
  C:3767H         PUBLIC        Get_Avg_Valu_24h
  D:00C0H         PUBLIC        I2C0CON
  D:00E8H         PUBLIC        I2C1CON
  C:575CH         PUBLIC        Get_Max_Valu_24h
  D:00A7H         PUBLIC        IAPAH
  D:00F8H         PUBLIC        S1CON
  D:00AEH         PUBLIC        IAPFD
  D:00C8H         PUBLIC        T2CON
  D:00A6H         PUBLIC        IAPAL
  D:00AFH         PUBLIC        IAPCN
  C:6909H         PUBLIC        Get_Avg_Valu_CO2_24h
  C:68FCH         PUBLIC        Get_Max_Valu_CO2_24h
  X:0200H         PUBLIC        SensorData
  D:00D0H         PUBLIC        PSW
  C:3FF8H         PUBLIC        _Write_DATAFLASH
  X:0319H         PUBLIC        page_buffer
  -------         PROC          _WRITE_DATAFLASH
  D:0006H         SYMBOL        u16EPAddr
  D:0001H         SYMBOL        u8EPData
  X:06D9H         SYMBOL        len
  -------         DO            
  D:0005H         SYMBOL        looptmp
  X:06DAH         SYMBOL        u16_addrl_r
  -------         ENDDO         
  C:3FF8H         LINE#         18
  C:3FF8H         LINE#         19
  C:3FF8H         LINE#         20
  C:3FFAH         LINE#         24
  C:4016H         LINE#         27
  C:4022H         LINE#         28
  C:4022H         LINE#         30
  C:4027H         LINE#         31
  C:4027H         LINE#         32
BL51 BANKED LINKER/LOCATER V6.22.2.0                                                  11/01/2022  15:49:49  PAGE 61


  C:4037H         LINE#         33
  C:403EH         LINE#         34
  C:4040H         LINE#         35
  C:404CH         LINE#         37
  C:404FH         LINE#         41
  C:4058H         LINE#         42
  C:405BH         LINE#         43
  C:405EH         LINE#         44
  C:4074H         LINE#         45
  C:4089H         LINE#         46
  C:408CH         LINE#         47
  C:40A1H         LINE#         50
  C:40B6H         LINE#         51
  C:40CBH         LINE#         52
  C:40CEH         LINE#         55
  C:40D9H         LINE#         56
  C:40D9H         LINE#         57
  C:40E1H         LINE#         58
  C:40E4H         LINE#         59
  C:40F1H         LINE#         60
  C:4107H         LINE#         61
  C:4107H         LINE#         55
  C:410AH         LINE#         63
  C:4120H         LINE#         64
  C:4135H         LINE#         65
  -------         ENDPROC       _WRITE_DATAFLASH
  -------         PROC          _EEPROM_WRITE_SENSORDATA
  D:0007H         SYMBOL        SaveType
  X:06D1H         SYMBOL        DataType
  -------         DO            
  X:06D2H         SYMBOL        Crc16
  -------         ENDDO         
  C:3A72H         LINE#         67
  C:3A77H         LINE#         68
  C:3A77H         LINE#         69
  C:3A7DH         LINE#         70
  C:3A7DH         LINE#         72
  C:3A7DH         LINE#         73
  C:3A7DH         LINE#         74
  C:3A86H         LINE#         75
  C:3A86H         LINE#         76
  C:3A8FH         LINE#         77
  C:3A8FH         LINE#         79
  C:3A91H         LINE#         80
  C:3A93H         LINE#         81
  C:3A95H         LINE#         82
  C:3A9BH         LINE#         83
  C:3A9BH         LINE#         84
  C:3A9FH         LINE#         85
  C:3AA1H         LINE#         86
  C:3AA1H         LINE#         87
  C:3AB3H         LINE#         88
  C:3AB5H         LINE#         89
  C:3AC8H         LINE#         90
  C:3ADCH         LINE#         91
  C:3AF0H         LINE#         92
  C:3AF0H         LINE#         93
BL51 BANKED LINKER/LOCATER V6.22.2.0                                                  11/01/2022  15:49:49  PAGE 62


  C:3B03H         LINE#         94
  C:3B03H         LINE#         95
  C:3B05H         LINE#         96
  C:3B05H         LINE#         97
  C:3B10H         LINE#         98
  C:3B10H         LINE#         99
  C:3B27H         LINE#         100
  C:3B3CH         LINE#         101
  C:3B44H         LINE#         102
  C:3B4CH         LINE#         103
  C:3B5FH         LINE#         104
  C:3B6CH         LINE#         105
  C:3B6FH         LINE#         106
  C:3B71H         LINE#         107
  C:3B90H         LINE#         109
  C:3BB0H         LINE#         110
  C:3BC3H         LINE#         111
  C:3BCDH         LINE#         112
  C:3BCDH         LINE#         113
  C:3BECH         LINE#         114
  C:3BECH         LINE#         115
  C:3BEEH         LINE#         116
  C:3BEEH         LINE#         117
  C:3BEEH         LINE#         118
  C:3BEEH         LINE#         119
  C:3BEEH         LINE#         121
  C:3BEEH         LINE#         122
  C:3BEEH         LINE#         124
  C:3BEEH         LINE#         125
  C:3BEEH         LINE#         127
  C:3BEEH         LINE#         128
  C:3BEEH         LINE#         130
  C:3BEEH         LINE#         131
  C:3BEEH         LINE#         132
  C:3BEEH         LINE#         133
  -------         ENDPROC       _EEPROM_WRITE_SENSORDATA
  -------         PROC          EEPROM_READDATAINIT
  -------         DO            
  X:06D1H         SYMBOL        OneCircle_Flag
  X:06D2H         SYMBOL        Save_AddrP
  X:06D3H         SYMBOL        CO2Value_H
  X:06D4H         SYMBOL        CO2Value_L
  X:06D5H         SYMBOL        i
  -------         ENDDO         
  C:2616H         LINE#         136
  C:2616H         LINE#         137
  C:2616H         LINE#         143
  C:2618H         LINE#         144
  C:262EH         LINE#         145
  C:2642H         LINE#         146
  C:2642H         LINE#         147
  C:2658H         LINE#         148
  C:266CH         LINE#         149
  C:266CH         LINE#         150
  C:2671H         LINE#         151
  C:2673H         LINE#         152
  C:2675H         LINE#         153
BL51 BANKED LINKER/LOCATER V6.22.2.0                                                  11/01/2022  15:49:49  PAGE 63


  C:2677H         LINE#         154
  C:2679H         LINE#         155
  C:2681H         LINE#         156
  C:2683H         LINE#         158
  C:2683H         LINE#         159
  C:268BH         LINE#         160
  C:2693H         LINE#         161
  C:269BH         LINE#         162
  C:26A3H         LINE#         163
  C:26ABH         LINE#         164
  C:26B3H         LINE#         165
  C:26BBH         LINE#         166
  C:26BBH         LINE#         168
  C:26BDH         LINE#         170
  C:26BDH         LINE#         171
  C:26C5H         LINE#         172
  C:26CDH         LINE#         173
  C:26D5H         LINE#         174
  C:26DDH         LINE#         175
  C:26E5H         LINE#         176
  C:26EDH         LINE#         177
  C:26F5H         LINE#         178
  C:26F5H         LINE#         180
  C:2717H         LINE#         181
  C:272AH         LINE#         182
  C:2737H         LINE#         183
  C:2740H         LINE#         184
  C:2752H         LINE#         186
  C:276CH         LINE#         187
  C:276CH         LINE#         188
  C:278EH         LINE#         190
  C:279BH         LINE#         191
  C:27A4H         LINE#         192
  C:27B6H         LINE#         193
  C:27CDH         LINE#         194
  C:27CDH         LINE#         195
  C:27E3H         LINE#         196
  C:27E3H         LINE#         197
  C:27EFH         LINE#         198
  C:27F7H         LINE#         199
  C:27F7H         LINE#         201
  C:27F7H         LINE#         202
  C:2809H         LINE#         203
  C:2809H         LINE#         204
  C:2822H         LINE#         205
  C:282AH         LINE#         206
  C:2833H         LINE#         207
  C:283BH         LINE#         208
  C:284BH         LINE#         209
  C:285AH         LINE#         210
  C:285DH         LINE#         211
  C:2865H         LINE#         212
  C:2865H         LINE#         213
  C:2867H         LINE#         215
  C:2867H         LINE#         216
  C:2879H         LINE#         217
  C:2879H         LINE#         218
BL51 BANKED LINKER/LOCATER V6.22.2.0                                                  11/01/2022  15:49:49  PAGE 64


  C:2892H         LINE#         219
  C:289AH         LINE#         220
  C:28A3H         LINE#         221
  C:28ABH         LINE#         222
  C:28BBH         LINE#         223
  C:28CAH         LINE#         224
  C:28CDH         LINE#         225
  C:28D5H         LINE#         226
  C:28D5H         LINE#         227
  C:28D7H         LINE#         228
  -------         ENDPROC       EEPROM_READDATAINIT
  -------         PROC          GET_MAX_VALU_24H
  -------         DO            
  D:0005H         SYMBOL        i
  X:06D1H         SYMBOL        Max_Valu_24h
  X:06D3H         SYMBOL        Max_Valu_24h_Temp
  -------         ENDDO         
  C:575CH         LINE#         231
  C:575CH         LINE#         232
  C:575CH         LINE#         236
  C:5768H         LINE#         237
  C:5768H         LINE#         238
  C:577CH         LINE#         239
  C:5785H         LINE#         240
  C:579EH         LINE#         241
  C:57B0H         LINE#         242
  C:57B0H         LINE#         243
  C:57BEH         LINE#         244
  C:57BEH         LINE#         245
  C:57C2H         LINE#         246
  C:57D3H         LINE#         247
  -------         ENDPROC       GET_MAX_VALU_24H
  -------         PROC          GET_AVG_VALU_24H
  -------         DO            
  X:06D1H         SYMBOL        i
  X:06D2H         SYMBOL        Avg_Valu_24h
  X:06D4H         SYMBOL        Avg_Valu_24h_Temp
  X:06D6H         SYMBOL        Avg_Valu_24h_Sum
  -------         ENDDO         
  C:3767H         LINE#         249
  C:3767H         LINE#         250
  C:3767H         LINE#         252
  C:376EH         LINE#         253
  C:3772H         LINE#         254
  C:377AH         LINE#         255
  C:3783H         LINE#         256
  C:3783H         LINE#         257
  C:37A0H         LINE#         258
  C:37A0H         LINE#         259
  C:37B5H         LINE#         260
  C:37BEH         LINE#         261
  C:37D7H         LINE#         262
  C:3800H         LINE#         263
  C:380AH         LINE#         264
  C:3846H         LINE#         266
  C:3849H         LINE#         268
  C:3849H         LINE#         269
BL51 BANKED LINKER/LOCATER V6.22.2.0                                                  11/01/2022  15:49:49  PAGE 65


  C:385BH         LINE#         270
  C:385BH         LINE#         271
  C:3870H         LINE#         272
  C:3879H         LINE#         273
  C:3892H         LINE#         274
  C:38BBH         LINE#         275
  C:38C4H         LINE#         276
  C:38E3H         LINE#         278
  C:38E3H         LINE#         282
  C:38F4H         LINE#         283
  -------         ENDPROC       GET_AVG_VALU_24H
  -------         PROC          GET_MAX_VALU_CO2_24H
  C:68FCH         LINE#         285
  C:68FCH         LINE#         286
  C:68FCH         LINE#         287
  C:6908H         LINE#         288
  -------         ENDPROC       GET_MAX_VALU_CO2_24H
  -------         PROC          GET_AVG_VALU_CO2_24H
  C:6909H         LINE#         290
  C:6909H         LINE#         291
  C:6909H         LINE#         292
  C:6915H         LINE#         293
  -------         ENDPROC       GET_AVG_VALU_CO2_24H
  -------         ENDMOD        EEPROM_USER

  -------         MODULE        KEY
  C:0000H         SYMBOL        _ICE_DUMMY_
  D:0080H         PUBLIC        P0
  D:0090H         PUBLIC        P1
  D:00A0H         PUBLIC        P2
  D:00B0H         PUBLIC        P3
  D:00BDH         PUBLIC        P5M1
  D:00D8H         PUBLIC        P4
  D:0084H         PUBLIC        P6M1
  D:00BEH         PUBLIC        P5M2
  D:00B1H         PUBLIC        P5
  D:00A7H         PUBLIC        P6
  D:0085H         PUBLIC        P6M2
  C:69A2H         PUBLIC        Get_Light_Sta
  C:69A8H         PUBLIC        Get_Bell_Sta
  D:00A8H         PUBLIC        IE
  C:69B4H         PUBLIC        Get_Color_Sta
  C:35D4H         PUBLIC        KeyProcess
  D:00B8H         PUBLIC        IP
  C:69C0H         PUBLIC        Get_Wifi_Key_Sta
  D:0097H         PUBLIC        P5UP
  C:69BAH         PUBLIC        Get_Co2DisMod
  D:0097H         PUBLIC        P6UP
  C:2055H         PUBLIC        Get_KeyValue
  C:69AEH         PUBLIC        Get_Unit_Sta
  X:06E6H         PUBLIC        KeyEvent
  D:0098H         PUBLIC        SCON
  D:0088H         PUBLIC        TCON
  D:0091H         PUBLIC        SFRS
  C:655AH         PUBLIC        Init_KeyPort
  D:00C0H         PUBLIC        I2C0CON
  D:00E8H         PUBLIC        I2C1CON
BL51 BANKED LINKER/LOCATER V6.22.2.0                                                  11/01/2022  15:49:49  PAGE 66


  D:00F8H         PUBLIC        S1CON
  D:00C8H         PUBLIC        T2CON
  D:00D0H         PUBLIC        PSW
  -------         PROC          INIT_KEYPORT
  C:655AH         LINE#         31
  C:655AH         LINE#         32
  C:655AH         LINE#         33
  C:6563H         LINE#         34
  C:6569H         LINE#         35
  C:6572H         LINE#         36
  C:6578H         LINE#         37
  C:657EH         LINE#         38
  C:6580H         LINE#         39
  C:6586H         LINE#         40
  -------         ENDPROC       INIT_KEYPORT
  -------         PROC          GET_KEYVALUE
  -------         DO            
  D:0005H         SYMBOL        KeyDataTemporary
  -------         ENDDO         
  C:2055H         LINE#         42
  C:2055H         LINE#         43
  C:2055H         LINE#         45
  C:2058H         LINE#         46
  C:205EH         LINE#         47
  C:2068H         LINE#         48
  C:206BH         LINE#         49
  C:206DH         LINE#         50
  C:2070H         LINE#         51
  C:2078H         LINE#         52
  C:207BH         LINE#         53
  C:207EH         LINE#         54
  C:207EH         LINE#         55
  C:2084H         LINE#         56
  C:208EH         LINE#         57
  C:208EH         LINE#         58
  C:2094H         LINE#         59
  C:2094H         LINE#         60
  C:209CH         LINE#         61
  C:209CH         LINE#         62
  C:209FH         LINE#         63
  C:20A1H         LINE#         64
  C:20A7H         LINE#         65
  C:20ACH         LINE#         66
  C:20B2H         LINE#         67
  C:20B7H         LINE#         68
  C:20BBH         LINE#         69
  C:20BDH         LINE#         70
  C:20C2H         LINE#         71
  C:20C2H         LINE#         72
  C:20C4H         LINE#         73
  C:20C9H         LINE#         75
  C:20D4H         LINE#         76
  C:20D4H         LINE#         77
  C:20DAH         LINE#         78
  C:20EBH         LINE#         79
  C:20EBH         LINE#         80
  C:20EBH         LINE#         81
BL51 BANKED LINKER/LOCATER V6.22.2.0                                                  11/01/2022  15:49:49  PAGE 67


  C:20F5H         LINE#         82
  C:20F5H         LINE#         83
  C:2105H         LINE#         84
  C:210DH         LINE#         85
  C:210DH         LINE#         86
  C:2113H         LINE#         87
  C:2120H         LINE#         88
  C:2120H         LINE#         89
  C:2131H         LINE#         90
  C:2137H         LINE#         91
  C:2137H         LINE#         92
  C:213DH         LINE#         93
  C:213FH         LINE#         94
  C:2145H         LINE#         95
  C:2145H         LINE#         96
  C:214BH         LINE#         97
  C:214BH         LINE#         98
  C:2150H         LINE#         99
  C:2154H         LINE#         100
  C:2158H         LINE#         101
  C:215CH         LINE#         102
  C:2160H         LINE#         103
  C:2160H         LINE#         104
  C:2163H         LINE#         106
  C:2163H         LINE#         107
  C:217FH         LINE#         108
  C:217FH         LINE#         109
  C:2184H         LINE#         110
  C:2188H         LINE#         111
  C:218DH         LINE#         112
  C:2190H         LINE#         113
  C:21A9H         LINE#         114
  C:21A9H         LINE#         115
  C:21AEH         LINE#         116
  C:21B4H         LINE#         117
  C:21B9H         LINE#         118
  C:21BDH         LINE#         119
  C:21C0H         LINE#         122
  C:21C0H         LINE#         123
  C:21C5H         LINE#         125
  C:21C9H         LINE#         126
  C:21CDH         LINE#         127
  C:21CFH         LINE#         128
  C:21CFH         LINE#         129
  C:21CFH         LINE#         130
  C:21D2H         LINE#         131
  C:21DAH         LINE#         132
  C:21DAH         LINE#         133
  C:21EAH         LINE#         134
  C:21EAH         LINE#         136
  C:21F0H         LINE#         137
  C:21F5H         LINE#         139
  C:21F9H         LINE#         140
  C:21FDH         LINE#         141
  C:2201H         LINE#         142
  C:2205H         LINE#         143
  C:220AH         LINE#         144
BL51 BANKED LINKER/LOCATER V6.22.2.0                                                  11/01/2022  15:49:49  PAGE 68


  C:220AH         LINE#         146
  C:220AH         LINE#         147
  C:220DH         LINE#         148
  C:220DH         LINE#         149
  C:2217H         LINE#         150
  C:2217H         LINE#         151
  C:2227H         LINE#         157
  C:222FH         LINE#         158
  C:222FH         LINE#         159
  C:2235H         LINE#         160
  C:2242H         LINE#         161
  C:2242H         LINE#         162
  C:2253H         LINE#         163
  C:2259H         LINE#         164
  C:2259H         LINE#         165
  C:225FH         LINE#         166
  C:2261H         LINE#         167
  C:2267H         LINE#         168
  C:2267H         LINE#         169
  C:226DH         LINE#         170
  C:226DH         LINE#         171
  C:2272H         LINE#         172
  C:2276H         LINE#         173
  C:227AH         LINE#         174
  C:227EH         LINE#         175
  C:2282H         LINE#         176
  C:2282H         LINE#         177
  C:2285H         LINE#         179
  C:2285H         LINE#         180
  C:22A1H         LINE#         181
  C:22A1H         LINE#         182
  C:22A7H         LINE#         183
  C:22ADH         LINE#         184
  C:22B2H         LINE#         185
  C:22B4H         LINE#         186
  C:22CDH         LINE#         187
  C:22CDH         LINE#         188
  C:22D3H         LINE#         189
  C:22D9H         LINE#         190
  C:22DEH         LINE#         191
  C:22E2H         LINE#         192
  C:22E4H         LINE#         195
  C:22E4H         LINE#         197
  C:22E9H         LINE#         199
  C:22EDH         LINE#         200
  C:22F1H         LINE#         201
  C:22F3H         LINE#         202
  C:22F3H         LINE#         203
  C:22F3H         LINE#         204
  C:22F5H         LINE#         205
  C:22FAH         LINE#         206
  C:22FAH         LINE#         207
  C:230DH         LINE#         208
  C:230DH         LINE#         209
  C:2313H         LINE#         210
  C:2318H         LINE#         212
  C:231CH         LINE#         213
BL51 BANKED LINKER/LOCATER V6.22.2.0                                                  11/01/2022  15:49:49  PAGE 69


  C:2320H         LINE#         214
  C:2324H         LINE#         215
  C:2328H         LINE#         216
  C:232DH         LINE#         217
  C:232DH         LINE#         219
  C:232DH         LINE#         220
  C:232DH         LINE#         221
  C:232DH         LINE#         222
  C:232DH         LINE#         223
  C:232DH         LINE#         224
  C:232DH         LINE#         225
  C:2335H         LINE#         226
  C:2335H         LINE#         227
  C:233BH         LINE#         228
  C:233BH         LINE#         230
  -------         ENDPROC       GET_KEYVALUE
  -------         PROC          KEYPROCESS
  C:35D4H         LINE#         232
  C:35D4H         LINE#         233
  C:35D4H         LINE#         234
  C:35D7H         LINE#         235
  C:35DFH         LINE#         236
  C:35DFH         LINE#         237
  C:35E8H         LINE#         238
  C:35E8H         LINE#         239
  C:35EAH         LINE#         240
  C:35ECH         LINE#         241
  C:35F2H         LINE#         242
  C:35F2H         LINE#         243
  C:35F8H         LINE#         244
  C:35FAH         LINE#         245
  C:3600H         LINE#         246
  C:3600H         LINE#         247
  C:3606H         LINE#         248
  C:3608H         LINE#         249
  C:360EH         LINE#         250
  C:360EH         LINE#         251
  C:3614H         LINE#         252
  C:3616H         LINE#         253
  C:361CH         LINE#         254
  C:361CH         LINE#         255
  C:3621H         LINE#         256
  C:3621H         LINE#         257
  C:3634H         LINE#         258
  C:3637H         LINE#         259
  C:3642H         LINE#         260
  C:3642H         LINE#         261
  C:364BH         LINE#         262
  C:364BH         LINE#         263
  C:364DH         LINE#         264
  C:3650H         LINE#         265
  C:3656H         LINE#         266
  C:3656H         LINE#         267
  C:365CH         LINE#         268
  C:365FH         LINE#         269
  C:3668H         LINE#         270
  C:3668H         LINE#         271
BL51 BANKED LINKER/LOCATER V6.22.2.0                                                  11/01/2022  15:49:49  PAGE 70


  C:366CH         LINE#         272
  C:366CH         LINE#         274
  C:366FH         LINE#         275
  C:3678H         LINE#         276
  C:3678H         LINE#         278
  C:3678H         LINE#         279
  C:3683H         LINE#         280
  C:3683H         LINE#         281
  C:368CH         LINE#         282
  C:368CH         LINE#         283
  C:368EH         LINE#         284
  C:3691H         LINE#         285
  C:369AH         LINE#         286
  C:369AH         LINE#         287
  C:369EH         LINE#         288
  C:369EH         LINE#         289
  C:36A1H         LINE#         290
  C:36A7H         LINE#         291
  C:36A7H         LINE#         292
  C:36B0H         LINE#         293
  C:36B0H         LINE#         294
  C:36B2H         LINE#         295
  C:36B5H         LINE#         296
  C:36BEH         LINE#         297
  C:36BEH         LINE#         298
  C:36C2H         LINE#         299
  C:36C2H         LINE#         300
  C:36C5H         LINE#         302
  C:36D0H         LINE#         303
  C:36D0H         LINE#         304
  C:36FBH         LINE#         305
  C:36FBH         LINE#         306
  C:36FBH         LINE#         307
  C:3701H         LINE#         308
  C:3703H         LINE#         309
  C:3703H         LINE#         310
  C:3709H         LINE#         311
  C:370BH         LINE#         312
  C:370BH         LINE#         313
  C:3711H         LINE#         314
  C:3713H         LINE#         315
  C:3713H         LINE#         316
  C:3719H         LINE#         317
  C:371BH         LINE#         318
  C:371BH         LINE#         319
  C:3721H         LINE#         320
  C:3723H         LINE#         321
  C:3723H         LINE#         322
  C:3729H         LINE#         323
  C:372BH         LINE#         324
  C:372BH         LINE#         325
  C:3731H         LINE#         326
  C:3733H         LINE#         327
  C:3733H         LINE#         328
  C:3738H         LINE#         329
  C:373AH         LINE#         330
  C:373AH         LINE#         331
BL51 BANKED LINKER/LOCATER V6.22.2.0                                                  11/01/2022  15:49:49  PAGE 71


  C:373AH         LINE#         332
  C:373AH         LINE#         343
  C:373CH         LINE#         344
  C:3742H         LINE#         345
  C:3742H         LINE#         347
  C:3742H         LINE#         348
  C:374AH         LINE#         349
  C:374AH         LINE#         350
  C:3753H         LINE#         351
  C:3753H         LINE#         352
  C:3755H         LINE#         353
  C:3757H         LINE#         354
  C:375DH         LINE#         355
  C:375DH         LINE#         356
  C:3761H         LINE#         357
  C:3761H         LINE#         359
  C:3761H         LINE#         361
  C:3766H         LINE#         362
  -------         ENDPROC       KEYPROCESS
  -------         PROC          GET_LIGHT_STA
  C:69A2H         LINE#         364
  C:69A2H         LINE#         365
  C:69A2H         LINE#         366
  C:69A7H         LINE#         367
  -------         ENDPROC       GET_LIGHT_STA
  -------         PROC          GET_BELL_STA
  C:69A8H         LINE#         369
  C:69A8H         LINE#         370
  C:69A8H         LINE#         371
  C:69ADH         LINE#         372
  -------         ENDPROC       GET_BELL_STA
  -------         PROC          GET_UNIT_STA
  C:69AEH         LINE#         374
  C:69AEH         LINE#         375
  C:69AEH         LINE#         376
  C:69B3H         LINE#         377
  -------         ENDPROC       GET_UNIT_STA
  -------         PROC          GET_COLOR_STA
  C:69B4H         LINE#         379
  C:69B4H         LINE#         380
  C:69B4H         LINE#         381
  C:69B9H         LINE#         382
  -------         ENDPROC       GET_COLOR_STA
  -------         PROC          GET_CO2DISMOD
  C:69BAH         LINE#         384
  C:69BAH         LINE#         385
  C:69BAH         LINE#         386
  C:69BFH         LINE#         388
  -------         ENDPROC       GET_CO2DISMOD
  -------         PROC          GET_WIFI_KEY_STA
  C:69C0H         LINE#         390
  C:69C0H         LINE#         391
  C:69C0H         LINE#         392
  C:69C5H         LINE#         393
  -------         ENDPROC       GET_WIFI_KEY_STA
  -------         ENDMOD        KEY

BL51 BANKED LINKER/LOCATER V6.22.2.0                                                  11/01/2022  15:49:49  PAGE 72


  -------         MODULE        LCD_USER
  C:0000H         SYMBOL        _ICE_DUMMY_
  D:00FFH         PUBLIC        P1MF54
  D:0093H         PUBLIC        P6MF32
  D:0080H         PUBLIC        P0
  X:0748H         PUBLIC        disvlue
  D:00E9H         PUBLIC        P3MF54
  D:0090H         PUBLIC        P1
  D:00FCH         PUBLIC        P0MF76
  D:00EDH         PUBLIC        P4MF54
  D:00A0H         PUBLIC        P2
  D:00F1H         PUBLIC        P1MF76
  D:00B0H         PUBLIC        P3
  D:00F5H         PUBLIC        P2MF76
  D:0094H         PUBLIC        P6MF54
  D:00D8H         PUBLIC        P4
  D:00EEH         PUBLIC        P4MF76
  D:0095H         PUBLIC        P6MF76
  C:4272H         PUBLIC        Init_Lcd
  D:00A8H         PUBLIC        IE
  C:3D68H         PUBLIC        _ShowDigit
  D:00B8H         PUBLIC        IP
  C:0F30H         PUBLIC        _LCD_Display_TempHub
  D:00FCH         PUBLIC        LCDDAT
  D:0098H         PUBLIC        SCON
  D:0088H         PUBLIC        TCON
  D:0091H         PUBLIC        SFRS
  D:00FBH         PUBLIC        LCDPTR
  C:69C6H         PUBLIC        Lcd_Display
  D:00C0H         PUBLIC        I2C0CON
  D:00E8H         PUBLIC        I2C1CON
  D:00F8H         PUBLIC        S1CON
  D:00C8H         PUBLIC        T2CON
  D:00F2H         PUBLIC        P2MF10
  D:00F6H         PUBLIC        P3MF10
  D:00EBH         PUBLIC        P4MF10
  D:00D0H         PUBLIC        PSW
  D:0092H         PUBLIC        P6MF10
  D:00F7H         PUBLIC        P3MF32
  -------         PROC          INIT_LCD
  C:4272H         LINE#         4
  C:4272H         LINE#         5
  C:4272H         LINE#         9
  C:427BH         LINE#         10
  C:4284H         LINE#         11
  C:428DH         LINE#         12
  C:4296H         LINE#         16
  C:429FH         LINE#         17
  C:42A8H         LINE#         18
  C:42B1H         LINE#         19
  C:42BAH         LINE#         20
  C:42C3H         LINE#         22
  C:42CCH         LINE#         23
  C:42D5H         LINE#         24
  C:42DEH         LINE#         25
  C:42E7H         LINE#         26
  C:42F0H         LINE#         27
BL51 BANKED LINKER/LOCATER V6.22.2.0                                                  11/01/2022  15:49:49  PAGE 73


  C:42F9H         LINE#         28
  C:4302H         LINE#         29
  C:430BH         LINE#         30
  C:4314H         LINE#         33
  C:431DH         LINE#         34
  C:4326H         LINE#         35
  C:432FH         LINE#         36
  C:4338H         LINE#         37
  C:4341H         LINE#         38
  C:434AH         LINE#         39
  C:4353H         LINE#         40
  C:435CH         LINE#         41
  C:4365H         LINE#         42
  C:436EH         LINE#         44
  C:4375H         LINE#         45
  C:4387H         LINE#         46
  C:438EH         LINE#         48
  C:4391H         LINE#         49
  C:4396H         LINE#         51
  -------         ENDPROC       INIT_LCD
  -------         PROC          LCD_DISPLAY
  C:69C6H         LINE#         53
  C:69C6H         LINE#         54
  C:69C6H         LINE#         55
  C:69CBH         LINE#         59
  -------         ENDPROC       LCD_DISPLAY
  -------         PROC          _SHOWDIGIT
  D:0007H         SYMBOL        digitPlace
  D:0001H         SYMBOL        num
  X:06E5H         SYMBOL        tempUnit
  -------         DO            
  D:0006H         SYMBOL        segABCD
  D:0005H         SYMBOL        segEFG
  -------         ENDDO         
  C:3D68H         LINE#         61
  C:3D6FH         LINE#         62
  C:3D6FH         LINE#         66
  C:3D71H         LINE#         68
  C:3D72H         LINE#         84
  C:3DA8H         LINE#         85
  C:3DA8H         LINE#         86
  C:3DA8H         LINE#         87
  C:3DAAH         LINE#         88
  C:3DACH         LINE#         89
  C:3DAEH         LINE#         91
  C:3DAEH         LINE#         92
  C:3DB0H         LINE#         93
  C:3DB2H         LINE#         94
  C:3DB4H         LINE#         96
  C:3DB4H         LINE#         97
  C:3DB6H         LINE#         98
  C:3DB8H         LINE#         99
  C:3DBAH         LINE#         101
  C:3DBAH         LINE#         102
  C:3DBCH         LINE#         103
  C:3DBEH         LINE#         104
  C:3DC0H         LINE#         105
BL51 BANKED LINKER/LOCATER V6.22.2.0                                                  11/01/2022  15:49:49  PAGE 74


  C:3DC0H         LINE#         106
  C:3DC2H         LINE#         107
  C:3DC4H         LINE#         108
  C:3DC6H         LINE#         109
  C:3DC6H         LINE#         110
  C:3DC8H         LINE#         111
  C:3DCAH         LINE#         112
  C:3DCCH         LINE#         113
  C:3DCCH         LINE#         115
  C:3DCEH         LINE#         116
  C:3DD0H         LINE#         117
  C:3DD2H         LINE#         118
  C:3DD2H         LINE#         119
  C:3DD4H         LINE#         120
  C:3DD6H         LINE#         121
  C:3DD8H         LINE#         123
  C:3DD8H         LINE#         124
  C:3DDAH         LINE#         125
  C:3DDCH         LINE#         126
  C:3DDEH         LINE#         127
  C:3DDEH         LINE#         128
  C:3DE0H         LINE#         129
  C:3DE2H         LINE#         130
  C:3DE2H         LINE#         131
  C:3DE4H         LINE#         132
  C:3DE4H         LINE#         133
  C:3DE4H         LINE#         135
  C:3DE4H         LINE#         137
  C:3DE4H         LINE#         144
  C:3DE7H         LINE#         145
  C:3DEBH         LINE#         147
  C:3E16H         LINE#         148
  C:3E16H         LINE#         149
  C:3E16H         LINE#         150
  C:3E19H         LINE#         151
  C:3E1BH         LINE#         152
  C:3E1BH         LINE#         154
  C:3E1EH         LINE#         155
  C:3E20H         LINE#         156
  C:3E20H         LINE#         157
  C:3E23H         LINE#         158
  C:3E25H         LINE#         159
  C:3E25H         LINE#         160
  C:3E28H         LINE#         161
  C:3E2AH         LINE#         162
  C:3E2AH         LINE#         163
  C:3E2DH         LINE#         164
  C:3E2FH         LINE#         165
  C:3E2FH         LINE#         166
  C:3E32H         LINE#         167
  C:3E34H         LINE#         168
  C:3E34H         LINE#         169
  C:3E37H         LINE#         170
  C:3E39H         LINE#         171
  C:3E39H         LINE#         172
  C:3E3CH         LINE#         173
  C:3E3EH         LINE#         174
BL51 BANKED LINKER/LOCATER V6.22.2.0                                                  11/01/2022  15:49:49  PAGE 75


  C:3E3EH         LINE#         175
  C:3E41H         LINE#         176
  C:3E43H         LINE#         177
  C:3E43H         LINE#         178
  C:3E46H         LINE#         179
  C:3E46H         LINE#         183
  C:3E46H         LINE#         185
  C:3E46H         LINE#         187
  C:3E46H         LINE#         191
  C:3E4DH         LINE#         193
  C:3E78H         LINE#         195
  C:3E78H         LINE#         196
  C:3E78H         LINE#         197
  C:3E7BH         LINE#         198
  C:3E7DH         LINE#         199
  C:3E7DH         LINE#         200
  C:3E80H         LINE#         201
  C:3E82H         LINE#         202
  C:3E82H         LINE#         203
  C:3E85H         LINE#         204
  C:3E87H         LINE#         205
  C:3E87H         LINE#         206
  C:3E8AH         LINE#         207
  C:3E8CH         LINE#         208
  C:3E8CH         LINE#         209
  C:3E8FH         LINE#         210
  C:3E91H         LINE#         211
  C:3E91H         LINE#         212
  C:3E94H         LINE#         213
  C:3E96H         LINE#         214
  C:3E96H         LINE#         215
  C:3E99H         LINE#         216
  C:3E9BH         LINE#         217
  C:3E9BH         LINE#         218
  C:3E9EH         LINE#         219
  C:3EA0H         LINE#         220
  C:3EA0H         LINE#         221
  C:3EA3H         LINE#         222
  C:3EA5H         LINE#         223
  C:3EA5H         LINE#         224
  C:3EA8H         LINE#         225
  C:3EA8H         LINE#         226
  C:3EA8H         LINE#         228
  C:3EA8H         LINE#         230
  C:3EA8H         LINE#         238
  C:3EAFH         LINE#         240
  C:3EAFH         LINE#         280
  C:3EAFH         LINE#         282
  -------         ENDPROC       _SHOWDIGIT
  -------         PROC          _LCD_DISPLAY_TEMPHUB
  X:06D1H         SYMBOL        TValue
  X:06D3H         SYMBOL        HValue
  -------         DO            
  X:06D5H         SYMBOL        tgw
  X:06D6H         SYMBOL        tsw
  X:06D7H         SYMBOL        tbw
  X:06D8H         SYMBOL        tqw
BL51 BANKED LINKER/LOCATER V6.22.2.0                                                  11/01/2022  15:49:49  PAGE 76


  X:06D9H         SYMBOL        hgw
  X:06DAH         SYMBOL        hsw
  X:06DBH         SYMBOL        hbw
  X:06DCH         SYMBOL        test_value
  X:0746H         SYMBOL        test_time
  X:06DEH         SYMBOL        F_PositFlag
  -------         ENDDO         
  C:0F30H         LINE#         285
  C:0F3EH         LINE#         286
  C:0F3EH         LINE#         290
  C:0F43H         LINE#         292
  C:0F47H         LINE#         293
  C:0F50H         LINE#         294
  C:0F50H         LINE#         297
  C:0F50H         LINE#         298
  C:0F5BH         LINE#         299
  C:0F5BH         LINE#         301
  C:0F64H         LINE#         302
  C:0F64H         LINE#         303
  C:0F87H         LINE#         304
  C:0F87H         LINE#         305
  C:0F8DH         LINE#         306
  C:0FB9H         LINE#         308
  C:0FBBH         LINE#         310
  C:0FBBH         LINE#         311
  C:0FC0H         LINE#         312
  C:0FF4H         LINE#         314
  C:0FF4H         LINE#         315
  C:0FF6H         LINE#         317
  C:0FF6H         LINE#         318
  C:0FFBH         LINE#         319
  C:1027H         LINE#         320
  C:1027H         LINE#         322
  C:1027H         LINE#         323
  C:103EH         LINE#         324
  C:105BH         LINE#         325
  C:107DH         LINE#         326
  C:108DH         LINE#         328
  C:10A4H         LINE#         329
  C:10C1H         LINE#         330
  C:10D5H         LINE#         331
  C:10DEH         LINE#         332
  C:10DEH         LINE#         333
  C:10ECH         LINE#         334
  C:10FBH         LINE#         335
  C:10FBH         LINE#         336
  C:1107H         LINE#         337
  C:1111H         LINE#         338
  C:1117H         LINE#         339
  C:1117H         LINE#         340
  C:111DH         LINE#         341
  C:111DH         LINE#         342
  C:1125H         LINE#         343
  C:1125H         LINE#         344
  C:112EH         LINE#         345
  C:1137H         LINE#         346
  C:1140H         LINE#         347
BL51 BANKED LINKER/LOCATER V6.22.2.0                                                  11/01/2022  15:49:49  PAGE 77


  C:1142H         LINE#         349
  C:1142H         LINE#         350
  C:114AH         LINE#         351
  C:114AH         LINE#         352
  C:1152H         LINE#         353
  C:1152H         LINE#         354
  C:115BH         LINE#         355
  C:1164H         LINE#         356
  C:116DH         LINE#         357
  C:116DH         LINE#         359
  C:1188H         LINE#         360
  C:1197H         LINE#         361
  C:1197H         LINE#         362
  C:11A0H         LINE#         363
  C:11A0H         LINE#         364
  C:11A9H         LINE#         366
  C:11B5H         LINE#         367
  C:11C0H         LINE#         368
  C:11CFH         LINE#         369
  C:11CFH         LINE#         370
  C:11D7H         LINE#         371
  C:11D7H         LINE#         372
  C:11E0H         LINE#         373
  C:11E3H         LINE#         374
  C:11F2H         LINE#         375
  C:11F2H         LINE#         376
  C:11F8H         LINE#         377
  C:11F8H         LINE#         378
  C:11FBH         LINE#         379
  C:1206H         LINE#         380
  C:1206H         LINE#         381
  C:1212H         LINE#         382
  C:121CH         LINE#         383
  C:1222H         LINE#         384
  C:1222H         LINE#         385
  C:1228H         LINE#         386
  C:1228H         LINE#         387
  C:1230H         LINE#         388
  C:1230H         LINE#         389
  C:1239H         LINE#         390
  C:1242H         LINE#         391
  C:124BH         LINE#         392
  C:124DH         LINE#         394
  C:124DH         LINE#         395
  C:1255H         LINE#         396
  C:1255H         LINE#         397
  C:125DH         LINE#         398
  C:125DH         LINE#         399
  C:1266H         LINE#         400
  C:126FH         LINE#         401
  C:1278H         LINE#         402
  C:1278H         LINE#         404
  C:1293H         LINE#         405
  C:12A2H         LINE#         406
  C:12A2H         LINE#         407
  C:12ABH         LINE#         408
  C:12ABH         LINE#         409
BL51 BANKED LINKER/LOCATER V6.22.2.0                                                  11/01/2022  15:49:49  PAGE 78


  C:12B4H         LINE#         411
  C:12C0H         LINE#         412
  C:12CBH         LINE#         413
  C:12DAH         LINE#         414
  C:12DAH         LINE#         415
  C:12E2H         LINE#         416
  C:12E2H         LINE#         417
  C:12EBH         LINE#         418
  C:12EBH         LINE#         421
  C:131BH         LINE#         422
  C:131BH         LINE#         423
  C:1324H         LINE#         425
  C:132DH         LINE#         426
  C:132DH         LINE#         427
  C:1383H         LINE#         428
  C:1383H         LINE#         429
  C:138CH         LINE#         430
  C:1395H         LINE#         433
  C:1395H         LINE#         434
  C:13C4H         LINE#         435
  C:13C4H         LINE#         436
  C:13CDH         LINE#         438
  C:13D6H         LINE#         439
  C:13D6H         LINE#         476
  C:13E4H         LINE#         477
  C:13F0H         LINE#         478
  C:13F0H         LINE#         479
  C:13F7H         LINE#         480
  C:13F9H         LINE#         481
  C:1405H         LINE#         482
  C:1405H         LINE#         484
  C:140CH         LINE#         485
  C:140EH         LINE#         486
  C:141AH         LINE#         487
  C:141AH         LINE#         489
  C:1421H         LINE#         490
  C:1423H         LINE#         491
  C:142FH         LINE#         492
  C:142FH         LINE#         494
  C:1436H         LINE#         495
  C:143DH         LINE#         496
  C:143DH         LINE#         497
  C:1443H         LINE#         501
  C:1449H         LINE#         502
  C:1449H         LINE#         503
  C:1450H         LINE#         504
  C:1452H         LINE#         505
  C:145AH         LINE#         506
  C:145AH         LINE#         507
  C:1462H         LINE#         508
  C:1462H         LINE#         510
  C:1468H         LINE#         511
  C:1468H         LINE#         512
  C:146FH         LINE#         513
  C:1471H         LINE#         514
  C:1479H         LINE#         515
  C:1479H         LINE#         516
BL51 BANKED LINKER/LOCATER V6.22.2.0                                                  11/01/2022  15:49:49  PAGE 79


  C:1481H         LINE#         517
  C:1481H         LINE#         519
  C:148AH         LINE#         520
  C:1493H         LINE#         521
  C:149CH         LINE#         522
  C:14A5H         LINE#         523
  C:14AEH         LINE#         527
  C:14B1H         LINE#         528
  -------         ENDPROC       _LCD_DISPLAY_TEMPHUB
  -------         ENDMOD        LCD_USER

  -------         MODULE        LED
  C:0000H         SYMBOL        _ICE_DUMMY_
  D:00B1H         PUBLIC        P0M1
  D:00B2H         PUBLIC        P0M2
  D:0080H         PUBLIC        P0
  D:0090H         PUBLIC        P1
  D:00C2H         PUBLIC        P3M1
  D:00A0H         PUBLIC        P2
  D:00C3H         PUBLIC        P3M2
  D:00B9H         PUBLIC        P4M1
  D:00B0H         PUBLIC        P3
  D:00BAH         PUBLIC        P4M2
  D:00D8H         PUBLIC        P4
  D:00EAH         PUBLIC        P3MF76
  D:00B1H         PUBLIC        P5
  D:00A8H         PUBLIC        IE
  D:00B8H         PUBLIC        IP
  C:62A2H         PUBLIC        _LED_FLASH
  D:0098H         PUBLIC        SCON
  D:0088H         PUBLIC        TCON
  D:00C4H         PUBLIC        PWM2CON0
  C:28D8H         PUBLIC        _RGB_Color
  D:0091H         PUBLIC        SFRS
  C:4C94H         PUBLIC        LED_Init
  D:00C0H         PUBLIC        I2C0CON
  D:00E8H         PUBLIC        I2C1CON
  D:00F8H         PUBLIC        S1CON
  D:00C8H         PUBLIC        T2CON
  C:510BH         PUBLIC        LED_Buz
  D:00D0H         PUBLIC        PSW
  D:00FBH         PUBLIC        P0MF54
  D:00ECH         PUBLIC        P4MF32
  -------         PROC          LED_INIT
  C:4C94H         LINE#         7
  C:4C94H         LINE#         8
  C:4C94H         LINE#         12
  C:4C9DH         LINE#         15
  C:4CA4H         LINE#         16
  C:4CADH         LINE#         17
  C:4CB6H         LINE#         18
  C:4CCAH         LINE#         19
  C:4CD0H         LINE#         20
  C:4CD7H         LINE#         22
  C:4CE0H         LINE#         23
  C:4CE9H         LINE#         24
  C:4D03H         LINE#         26
BL51 BANKED LINKER/LOCATER V6.22.2.0                                                  11/01/2022  15:49:49  PAGE 80


  C:4D0CH         LINE#         27
  C:4D15H         LINE#         28
  C:4D30H         LINE#         30
  C:4D39H         LINE#         31
  C:4D42H         LINE#         32
  C:4D5DH         LINE#         38
  C:4D63H         LINE#         39
  C:4D66H         LINE#         43
  -------         ENDPROC       LED_INIT
  -------         PROC          _LED_FLASH
  D:0007H         SYMBOL        Times
  C:62A2H         LINE#         45
  C:62A2H         LINE#         46
  C:62A2H         LINE#         47
  C:62B1H         LINE#         48
  C:62B1H         LINE#         49
  C:62B1H         LINE#         50
  C:62BAH         LINE#         51
  C:62BBH         LINE#         52
  C:62BBH         LINE#         53
  C:62C4H         LINE#         54
  C:62C5H         LINE#         55
  C:62C5H         LINE#         56
  C:62CEH         LINE#         57
  C:62CFH         LINE#         59
  C:62CFH         LINE#         60
  C:62D8H         LINE#         61
  C:62D8H         LINE#         63
  C:62D8H         LINE#         65
  -------         ENDPROC       _LED_FLASH
  -------         PROC          LED_BUZ
  -------         DO            
  X:0750H         SYMBOL        BuzTime
  -------         ENDDO         
  C:510BH         LINE#         67
  C:510BH         LINE#         68
  C:510BH         LINE#         70
  C:5116H         LINE#         71
  C:5116H         LINE#         72
  C:5122H         LINE#         73
  C:5122H         LINE#         74
  C:512BH         LINE#         75
  C:512CH         LINE#         76
  C:5138H         LINE#         77
  C:5138H         LINE#         78
  C:5141H         LINE#         79
  C:5142H         LINE#         80
  C:514EH         LINE#         81
  C:514EH         LINE#         82
  C:5157H         LINE#         83
  C:5158H         LINE#         85
  C:5158H         LINE#         86
  C:5161H         LINE#         87
  C:5167H         LINE#         88
  C:5167H         LINE#         89
  C:516DH         LINE#         90
  C:516EH         LINE#         91
BL51 BANKED LINKER/LOCATER V6.22.2.0                                                  11/01/2022  15:49:49  PAGE 81


  C:5176H         LINE#         92
  C:5176H         LINE#         93
  C:517CH         LINE#         94
  C:5189H         LINE#         95
  C:5189H         LINE#         96
  C:518FH         LINE#         97
  C:5190H         LINE#         98
  C:519BH         LINE#         99
  C:519BH         LINE#         100
  C:51A1H         LINE#         101
  C:51A2H         LINE#         102
  C:51A7H         LINE#         103
  C:51A7H         LINE#         104
  C:51A7H         LINE#         106
  C:51A8H         LINE#         107
  C:51AEH         LINE#         108
  C:51AEH         LINE#         109
  C:51B3H         LINE#         110
  C:51B9H         LINE#         111
  C:51B9H         LINE#         119
  -------         ENDPROC       LED_BUZ
  -------         PROC          _RGB_COLOR
  X:06D1H         SYMBOL        RGBColor
  C:28D8H         LINE#         120
  C:28DDH         LINE#         121
  C:28DDH         LINE#         122
  C:28E0H         LINE#         123
  C:290BH         LINE#         124
  C:290BH         LINE#         125
  C:290BH         LINE#         126
  C:2925H         LINE#         127
  C:2940H         LINE#         128
  C:295BH         LINE#         129
  C:295EH         LINE#         130
  C:295EH         LINE#         131
  C:2975H         LINE#         132
  C:298DH         LINE#         133
  C:29A8H         LINE#         134
  C:29ABH         LINE#         135
  C:29ABH         LINE#         136
  C:29C5H         LINE#         137
  C:29DDH         LINE#         138
  C:29F5H         LINE#         139
  C:29F8H         LINE#         140
  C:29F8H         LINE#         141
  C:2A0FH         LINE#         142
  C:2A2AH         LINE#         143
  C:2A42H         LINE#         144
  C:2A45H         LINE#         145
  C:2A45H         LINE#         146
  C:2A5FH         LINE#         147
  C:2A77H         LINE#         148
  C:2A92H         LINE#         149
  C:2A95H         LINE#         150
  C:2A95H         LINE#         151
  C:2AACH         LINE#         152
  C:2AC7H         LINE#         153
BL51 BANKED LINKER/LOCATER V6.22.2.0                                                  11/01/2022  15:49:49  PAGE 82


  C:2AE2H         LINE#         154
  C:2AE5H         LINE#         155
  C:2AE5H         LINE#         156
  C:2AFFH         LINE#         157
  C:2B1AH         LINE#         158
  C:2B35H         LINE#         159
  C:2B37H         LINE#         160
  C:2B37H         LINE#         161
  C:2B51H         LINE#         162
  C:2B6CH         LINE#         163
  C:2B84H         LINE#         164
  C:2B84H         LINE#         165
  C:2B84H         LINE#         166
  C:2B84H         LINE#         167
  C:2B84H         LINE#         168
  C:2B87H         LINE#         171
  -------         ENDPROC       _RGB_COLOR
  -------         ENDMOD        LED

  -------         MODULE        SHTC3
  C:0000H         SYMBOL        _ICE_DUMMY_
  D:00E1H         PUBLIC        P5MF32
  D:0080H         PUBLIC        P0
  C:699BH         PUBLIC        Set_TempPositive
  D:0090H         PUBLIC        P1
  D:00A0H         PUBLIC        P2
  D:00B0H         PUBLIC        P3
  D:00BDH         PUBLIC        P5M1
  D:00D8H         PUBLIC        P4
  C:6627H         PUBLIC        Is_IIC_OverTime
  D:00BEH         PUBLIC        P5M2
  D:00A8H         PUBLIC        IE
  D:00B8H         PUBLIC        IP
  C:6955H         PUBLIC        Get_TempValue
  C:45D7H         PUBLIC        _I2C_Read
  C:695EH         PUBLIC        Get_HubValue
  C:00B2H         PUBLIC        I2C_Error
  C:4BBFH         PUBLIC        _I2C_Write
  D:00BDH         PUBLIC        I2C0STAT
  D:0098H         PUBLIC        SCON
  D:0088H         PUBLIC        TCON
  C:5D15H         PUBLIC        Init_I2C
  D:0091H         PUBLIC        SFRS
  X:06BEH         PUBLIC        SHTC3_Data
  D:00BCH         PUBLIC        I2C0DAT
  D:00BEH         PUBLIC        I2C0CLK
  C:30A0H         PUBLIC        Get_TempHut
  D:00C0H         PUBLIC        I2C0CON
  D:00E8H         PUBLIC        I2C1CON
  C:69CCH         PUBLIC        Init_SHTC3
  C:55E9H         PUBLIC        _I2C_Read_Process
  D:00F8H         PUBLIC        S1CON
  D:00C8H         PUBLIC        T2CON
  C:5BA5H         PUBLIC        _I2C_Write_Process
  C:69D2H         PUBLIC        Get_TempPositive
  D:00D0H         PUBLIC        PSW
  -------         PROC          INIT_SHTC3
BL51 BANKED LINKER/LOCATER V6.22.2.0                                                  11/01/2022  15:49:49  PAGE 83


  C:69CCH         LINE#         29
  C:69CCH         LINE#         30
  C:69CCH         LINE#         31
  C:69D1H         LINE#         32
  -------         ENDPROC       INIT_SHTC3
  -------         PROC          I2C_ERROR
  C:00B2H         LINE#         37
  C:00B2H         LINE#         38
  C:00B2H         LINE#         41
  -------         ENDPROC       I2C_ERROR
  -------         PROC          _I2C_WRITE
  D:0001H         SYMBOL        pbuf
  D:0005H         SYMBOL        len
  -------         DO            
  D:0007H         SYMBOL        u8Count
  -------         ENDDO         
  C:4BBFH         LINE#         48
  C:4BBFH         LINE#         49
  C:4BBFH         LINE#         53
  C:4BC2H         LINE#         54
  C:4BC5H         LINE#         55
  C:4BCAH         LINE#         56
  C:4BCAH         LINE#         57
  C:4BD0H         LINE#         58
  C:4BD6H         LINE#         59
  C:4BD6H         LINE#         60
  C:4BDAH         LINE#         61
  C:4BDCH         LINE#         62
  C:4BE0H         LINE#         64
  C:4BE0H         LINE#         65
  C:4BE0H         LINE#         66
  C:4BE5H         LINE#         67
  C:4BE7H         LINE#         68
  C:4BEEH         LINE#         69
  C:4BF1H         LINE#         72
  C:4BF4H         LINE#         73
  C:4BF7H         LINE#         74
  C:4BFAH         LINE#         76
  C:4BFFH         LINE#         77
  C:4BFFH         LINE#         78
  C:4C05H         LINE#         79
  C:4C0BH         LINE#         80
  C:4C0BH         LINE#         81
  C:4C0FH         LINE#         82
  C:4C11H         LINE#         83
  C:4C15H         LINE#         85
  C:4C15H         LINE#         86
  C:4C15H         LINE#         87
  C:4C1AH         LINE#         88
  C:4C1CH         LINE#         89
  C:4C23H         LINE#         90
  C:4C26H         LINE#         93
  C:4C2DH         LINE#         94
  C:4C2DH         LINE#         96
  C:4C32H         LINE#         97
  C:4C39H         LINE#         98
  C:4C3CH         LINE#         100
BL51 BANKED LINKER/LOCATER V6.22.2.0                                                  11/01/2022  15:49:49  PAGE 84


  C:4C41H         LINE#         101
  C:4C41H         LINE#         102
  C:4C47H         LINE#         103
  C:4C4DH         LINE#         104
  C:4C4DH         LINE#         105
  C:4C51H         LINE#         106
  C:4C53H         LINE#         107
  C:4C57H         LINE#         109
  C:4C57H         LINE#         110
  C:4C57H         LINE#         111
  C:4C5CH         LINE#         112
  C:4C5EH         LINE#         113
  C:4C65H         LINE#         114
  C:4C68H         LINE#         115
  C:4C6BH         LINE#         118
  C:4C6EH         LINE#         119
  C:4C71H         LINE#         121
  C:4C76H         LINE#         122
  C:4C76H         LINE#         123
  C:4C7CH         LINE#         124
  C:4C82H         LINE#         125
  C:4C82H         LINE#         126
  C:4C86H         LINE#         127
  C:4C88H         LINE#         128
  C:4C8CH         LINE#         130
  C:4C8CH         LINE#         131
  C:4C8CH         LINE#         132
  C:4C91H         LINE#         133
  C:4C93H         LINE#         135
  -------         ENDPROC       _I2C_WRITE
  -------         PROC          _I2C_READ
  D:0001H         SYMBOL        pbuf
  D:0004H         SYMBOL        len
  -------         DO            
  X:06D1H         SYMBOL        u8Count
  -------         ENDDO         
  C:45D7H         LINE#         137
  C:45D7H         LINE#         138
  C:45D7H         LINE#         141
  C:45DAH         LINE#         142
  C:45DDH         LINE#         144
  C:45E2H         LINE#         145
  C:45E2H         LINE#         146
  C:45E8H         LINE#         147
  C:45EEH         LINE#         148
  C:45EEH         LINE#         149
  C:45F2H         LINE#         150
  C:45F4H         LINE#         151
  C:45F8H         LINE#         153
  C:45F8H         LINE#         154
  C:45F8H         LINE#         155
  C:45FDH         LINE#         156
  C:45FFH         LINE#         157
  C:4606H         LINE#         158
  C:4609H         LINE#         161
  C:460CH         LINE#         162
  C:460FH         LINE#         163
BL51 BANKED LINKER/LOCATER V6.22.2.0                                                  11/01/2022  15:49:49  PAGE 85


  C:4612H         LINE#         165
  C:4617H         LINE#         166
  C:4617H         LINE#         167
  C:461DH         LINE#         168
  C:4623H         LINE#         169
  C:4623H         LINE#         170
  C:4627H         LINE#         171
  C:4629H         LINE#         172
  C:462DH         LINE#         174
  C:462DH         LINE#         175
  C:462DH         LINE#         176
  C:4632H         LINE#         177
  C:4634H         LINE#         178
  C:463BH         LINE#         179
  C:463EH         LINE#         182
  C:4652H         LINE#         183
  C:4652H         LINE#         184
  C:4655H         LINE#         185
  C:4658H         LINE#         187
  C:465DH         LINE#         188
  C:465DH         LINE#         189
  C:4663H         LINE#         190
  C:4669H         LINE#         191
  C:4669H         LINE#         192
  C:466DH         LINE#         193
  C:466FH         LINE#         194
  C:4673H         LINE#         196
  C:4673H         LINE#         197
  C:4673H         LINE#         198
  C:4678H         LINE#         199
  C:467AH         LINE#         200
  C:4681H         LINE#         201
  C:4684H         LINE#         205
  C:4689H         LINE#         206
  C:4690H         LINE#         207
  C:4698H         LINE#         210
  C:469BH         LINE#         211
  C:469EH         LINE#         213
  C:46A3H         LINE#         214
  C:46A3H         LINE#         215
  C:46A9H         LINE#         216
  C:46AFH         LINE#         217
  C:46AFH         LINE#         218
  C:46B3H         LINE#         219
  C:46B5H         LINE#         220
  C:46B9H         LINE#         222
  C:46B9H         LINE#         223
  C:46B9H         LINE#         224
  C:46BEH         LINE#         225
  C:46C0H         LINE#         226
  C:46C7H         LINE#         227
  C:46CAH         LINE#         230
  C:46CDH         LINE#         231
  C:46D0H         LINE#         233
  C:46D5H         LINE#         234
  C:46D5H         LINE#         235
  C:46DBH         LINE#         236
BL51 BANKED LINKER/LOCATER V6.22.2.0                                                  11/01/2022  15:49:49  PAGE 86


  C:46E1H         LINE#         237
  C:46E1H         LINE#         238
  C:46E5H         LINE#         239
  C:46E7H         LINE#         240
  C:46EBH         LINE#         242
  C:46EBH         LINE#         243
  C:46EBH         LINE#         244
  C:46F0H         LINE#         245
  C:46F2H         LINE#         246
  -------         ENDPROC       _I2C_READ
  -------         PROC          INIT_I2C
  C:5D15H         LINE#         248
  C:5D15H         LINE#         249
  C:5D15H         LINE#         250
  C:5D1EH         LINE#         251
  C:5D27H         LINE#         252
  C:5D30H         LINE#         253
  C:5D39H         LINE#         255
  C:5D3CH         LINE#         257
  C:5D3FH         LINE#         260
  C:5D42H         LINE#         261
  C:5D46H         LINE#         262
  C:5D4CH         LINE#         263
  C:5D50H         LINE#         264
  C:5D5BH         LINE#         265
  C:5D61H         LINE#         266
  C:5D65H         LINE#         267
  C:5D6CH         LINE#         268
  -------         ENDPROC       INIT_I2C
  -------         PROC          GET_TEMPHUT
  -------         DO            
  X:06BCH         SYMBOL        DelayTime
  -------         ENDDO         
  C:30A0H         LINE#         271
  C:30A0H         LINE#         272
  C:30A0H         LINE#         286
  C:30A7H         LINE#         287
  C:30A7H         LINE#         288
  C:30ADH         LINE#         289
  C:30B1H         LINE#         290
  C:30BCH         LINE#         291
  C:30C2H         LINE#         292
  C:30C3H         LINE#         293
  C:30C8H         LINE#         294
  C:30C8H         LINE#         295
  C:30CEH         LINE#         296
  C:30D2H         LINE#         297
  C:30DDH         LINE#         298
  C:30E3H         LINE#         299
  C:30E4H         LINE#         300
  C:30EFH         LINE#         301
  C:30EFH         LINE#         303
  C:30F5H         LINE#         304
  C:3102H         LINE#         305
  C:3102H         LINE#         306
  C:3104H         LINE#         307
  C:310AH         LINE#         308
BL51 BANKED LINKER/LOCATER V6.22.2.0                                                  11/01/2022  15:49:49  PAGE 87


  C:310AH         LINE#         309
  C:310BH         LINE#         310
  C:3114H         LINE#         311
  C:3114H         LINE#         312
  C:3120H         LINE#         313
  C:3126H         LINE#         314
  C:3134H         LINE#         315
  C:3146H         LINE#         316
  C:3173H         LINE#         317
  C:3173H         LINE#         318
  C:3180H         LINE#         319
  C:3189H         LINE#         320
  C:319BH         LINE#         323
  C:31CEH         LINE#         325
  C:31D6H         LINE#         326
  C:31D6H         LINE#         327
  C:31E1H         LINE#         328
  C:31E7H         LINE#         329
  C:31E9H         LINE#         331
  C:31E9H         LINE#         332
  C:31FDH         LINE#         333
  C:3202H         LINE#         334
  C:3202H         LINE#         336
  C:3211H         LINE#         338
  C:321EH         LINE#         339
  C:3227H         LINE#         340
  C:3239H         LINE#         341
  C:326BH         LINE#         342
  C:326BH         LINE#         345
  C:326CH         LINE#         346
  C:3274H         LINE#         347
  C:3274H         LINE#         348
  C:327AH         LINE#         349
  C:327EH         LINE#         350
  C:3289H         LINE#         351
  C:328EH         LINE#         352
  C:3291H         LINE#         353
  C:3291H         LINE#         356
  -------         ENDPROC       GET_TEMPHUT
  -------         PROC          _I2C_WRITE_PROCESS
  D:0007H         SYMBOL        u8DAT
  -------         DO            
  D:0006H         SYMBOL        u8Count
  -------         ENDDO         
  C:5BA5H         LINE#         357
  C:5BA5H         LINE#         358
  C:5BA5H         LINE#         361
  C:5BA8H         LINE#         362
  C:5BABH         LINE#         363
  C:5BB0H         LINE#         364
  C:5BB7H         LINE#         365
  C:5BBAH         LINE#         368
  C:5BBDH         LINE#         369
  C:5BC0H         LINE#         370
  C:5BC3H         LINE#         371
  C:5BC8H         LINE#         372
  C:5BCFH         LINE#         373
BL51 BANKED LINKER/LOCATER V6.22.2.0                                                  11/01/2022  15:49:49  PAGE 88


  C:5BD2H         LINE#         376
  C:5BDEH         LINE#         377
  C:5BDEH         LINE#         378
  C:5BE0H         LINE#         379
  C:5BE3H         LINE#         380
  C:5BE8H         LINE#         381
  C:5BEFH         LINE#         382
  C:5BF2H         LINE#         384
  C:5BF5H         LINE#         385
  C:5BF8H         LINE#         388
  C:5BFBH         LINE#         389
  C:5BFEH         LINE#         390
  C:5C03H         LINE#         391
  -------         ENDPROC       _I2C_WRITE_PROCESS
  -------         PROC          _I2C_READ_PROCESS
  D:0007H         SYMBOL        u8DAT
  -------         DO            
  D:0006H         SYMBOL        u8Count
  -------         ENDDO         
  C:55E9H         LINE#         396
  C:55E9H         LINE#         397
  C:55E9H         LINE#         400
  C:55ECH         LINE#         401
  C:55EFH         LINE#         402
  C:55F4H         LINE#         403
  C:55FBH         LINE#         404
  C:55FEH         LINE#         407
  C:5601H         LINE#         408
  C:5604H         LINE#         409
  C:5607H         LINE#         410
  C:560CH         LINE#         411
  C:5613H         LINE#         412
  C:5616H         LINE#         415
  C:5622H         LINE#         416
  C:5622H         LINE#         417
  C:5625H         LINE#         418
  C:5628H         LINE#         419
  C:562DH         LINE#         421
  C:5634H         LINE#         422
  C:5637H         LINE#         424
  C:563CH         LINE#         425
  C:563FH         LINE#         426
  C:5642H         LINE#         427
  C:5645H         LINE#         430
  C:5648H         LINE#         431
  C:564BH         LINE#         432
  C:5650H         LINE#         433
  C:5657H         LINE#         434
  C:565AH         LINE#         437
  C:565DH         LINE#         438
  C:5660H         LINE#         439
  C:5665H         LINE#         440
  -------         ENDPROC       _I2C_READ_PROCESS
  -------         PROC          GET_TEMPVALUE
  C:6955H         LINE#         443
  C:6955H         LINE#         444
  C:6955H         LINE#         445
BL51 BANKED LINKER/LOCATER V6.22.2.0                                                  11/01/2022  15:49:49  PAGE 89


  C:695DH         LINE#         446
  -------         ENDPROC       GET_TEMPVALUE
  -------         PROC          GET_HUBVALUE
  C:695EH         LINE#         448
  C:695EH         LINE#         449
  C:695EH         LINE#         450
  C:6966H         LINE#         451
  -------         ENDPROC       GET_HUBVALUE
  -------         PROC          IS_IIC_OVERTIME
  -------         DO            
  X:06BDH         SYMBOL        countT
  -------         ENDDO         
  C:6627H         LINE#         453
  C:6627H         LINE#         454
  C:6627H         LINE#         456
  C:662FH         LINE#         457
  C:662FH         LINE#         458
  C:6635H         LINE#         459
  C:663FH         LINE#         460
  C:663FH         LINE#         461
  C:6645H         LINE#         462
  C:664AH         LINE#         463
  C:664AH         LINE#         465
  C:664AH         LINE#         467
  -------         ENDPROC       IS_IIC_OVERTIME
  -------         PROC          GET_TEMPPOSITIVE
  C:69D2H         LINE#         469
  C:69D2H         LINE#         470
  C:69D2H         LINE#         471
  C:69D7H         LINE#         472
  -------         ENDPROC       GET_TEMPPOSITIVE
  -------         PROC          SET_TEMPPOSITIVE
  C:699BH         LINE#         474
  C:699BH         LINE#         475
  C:699BH         LINE#         476
  C:69A1H         LINE#         477
  -------         ENDPROC       SET_TEMPPOSITIVE
  -------         ENDMOD        SHTC3

  -------         MODULE        TIMER0
  C:0000H         SYMBOL        _ICE_DUMMY_
  D:0080H         PUBLIC        P0
  D:0090H         PUBLIC        P1
  D:00A0H         PUBLIC        P2
  D:00B0H         PUBLIC        P3
  C:3292H         PUBLIC        Timer0_ISR
  D:00D8H         PUBLIC        P4
  C:69FCH         PUBLIC        GET_TempHub_Sta
  B:00A8H.7       PUBLIC        EA
  C:69EAH         PUBLIC        Get_OneCircleSaveFlag
  D:00A8H         PUBLIC        IE
  C:69E4H         PUBLIC        Get_SaveAddr
  D:00B8H         PUBLIC        IP
  C:6967H         PUBLIC        GET_NtcTEMP
  C:6766H         PUBLIC        Timer0_Init
  D:0098H         PUBLIC        SCON
  D:0089H         PUBLIC        TMOD
BL51 BANKED LINKER/LOCATER V6.22.2.0                                                  11/01/2022  15:49:49  PAGE 90


  D:0088H         PUBLIC        TCON
  C:69DEH         PUBLIC        Clr__TempHutStartFlag
  D:0091H         PUBLIC        SFRS
  B:0088H.5       PUBLIC        TF0
  D:008CH         PUBLIC        TH0
  C:69F6H         PUBLIC        _Set_Save_AddrP
  D:00C0H         PUBLIC        I2C0CON
  D:008AH         PUBLIC        TL0
  D:00E8H         PUBLIC        I2C1CON
  C:4136H         PUBLIC        Time_Process
  X:0697H         PUBLIC        Sys_TimePar
  C:69D8H         PUBLIC        Get_TempHutStartFlag
  C:69F0H         PUBLIC        _Set_OneCircle_Flag
  D:00F8H         PUBLIC        S1CON
  D:00C8H         PUBLIC        T2CON
  D:008EH         PUBLIC        CKCON
  D:00D0H         PUBLIC        PSW
  -------         PROC          TIMER0_INIT
  C:6766H         LINE#         57
  C:6766H         LINE#         58
  C:6766H         LINE#         59
  C:676CH         LINE#         60
  C:6771H         LINE#         61
  C:6773H         LINE#         62
  C:6776H         LINE#         63
  C:6779H         LINE#         64
  C:677CH         LINE#         65
  C:677EH         LINE#         66
  C:6781H         LINE#         67
  -------         ENDPROC       TIMER0_INIT
  -------         PROC          TIMER0_ISR
  C:3292H         LINE#         71
  C:32AFH         LINE#         73
  C:32B1H         LINE#         74
  C:32B4H         LINE#         75
  C:32B7H         LINE#         76
  C:32BAH         LINE#         77
  C:32BCH         LINE#         78
  C:32C2H         LINE#         79
  C:32C6H         LINE#         80
  C:32CAH         LINE#         81
  C:32CEH         LINE#         82
  C:32D2H         LINE#         83
  C:32D6H         LINE#         84
  C:32DAH         LINE#         85
  C:32DEH         LINE#         86
  C:32ECH         LINE#         87
  C:32FAH         LINE#         88
  C:3308H         LINE#         89
  C:330BH         LINE#         90
  C:3318H         LINE#         91
  C:3318H         LINE#         92
  C:331EH         LINE#         93
  C:3323H         LINE#         94
  C:3323H         LINE#         95
  C:3330H         LINE#         96
  C:3330H         LINE#         97
BL51 BANKED LINKER/LOCATER V6.22.2.0                                                  11/01/2022  15:49:49  PAGE 91


  C:3336H         LINE#         98
  C:333BH         LINE#         99
  C:333BH         LINE#         100
  C:3348H         LINE#         101
  C:3348H         LINE#         102
  C:334EH         LINE#         103
  C:3353H         LINE#         104
  C:3353H         LINE#         105
  C:3360H         LINE#         106
  C:3360H         LINE#         107
  C:3366H         LINE#         108
  C:336BH         LINE#         109
  C:336BH         LINE#         110
  C:3378H         LINE#         111
  C:3378H         LINE#         112
  C:337EH         LINE#         113
  C:3383H         LINE#         114
  C:3383H         LINE#         115
  C:3390H         LINE#         116
  C:3390H         LINE#         117
  C:3396H         LINE#         118
  C:339BH         LINE#         119
  C:339BH         LINE#         120
  C:33A8H         LINE#         121
  C:33A8H         LINE#         122
  C:33AEH         LINE#         123
  C:33B3H         LINE#         124
  C:33B3H         LINE#         125
  C:33C0H         LINE#         126
  C:33C0H         LINE#         127
  C:33C6H         LINE#         128
  C:33CBH         LINE#         129
  C:33CBH         LINE#         130
  C:33DAH         LINE#         131
  C:33DAH         LINE#         132
  C:33E0H         LINE#         133
  C:33E7H         LINE#         134
  C:33E7H         LINE#         135
  C:33F6H         LINE#         136
  C:33F6H         LINE#         137
  C:33FCH         LINE#         138
  C:3403H         LINE#         139
  C:3403H         LINE#         140
  C:3412H         LINE#         141
  C:3412H         LINE#         142
  C:3418H         LINE#         143
  C:341FH         LINE#         144
  C:341FH         LINE#         146
  C:3421H         LINE#         147
  -------         ENDPROC       TIMER0_ISR
  -------         PROC          TIME_PROCESS
  -------         DO            
  X:0696H         SYMBOL        stable_count
  -------         ENDDO         
  C:4136H         LINE#         149
  C:4136H         LINE#         150
  C:4136H         LINE#         151
BL51 BANKED LINKER/LOCATER V6.22.2.0                                                  11/01/2022  15:49:49  PAGE 92


  C:413EH         LINE#         152
  C:413EH         LINE#         153
  C:4146H         LINE#         154
  C:4146H         LINE#         155
  C:4149H         LINE#         157
  C:4149H         LINE#         159
  C:414CH         LINE#         160
  C:4151H         LINE#         162
  C:4152H         LINE#         163
  C:415AH         LINE#         164
  C:415AH         LINE#         167
  C:415DH         LINE#         168
  C:4160H         LINE#         169
  C:4166H         LINE#         170
  C:416BH         LINE#         171
  C:416CH         LINE#         172
  C:4174H         LINE#         173
  C:4174H         LINE#         175
  C:4179H         LINE#         176
  C:417EH         LINE#         178
  C:4186H         LINE#         179
  C:4186H         LINE#         180
  C:418CH         LINE#         181
  C:418CH         LINE#         182
  C:4191H         LINE#         183
  C:4196H         LINE#         184
  C:4196H         LINE#         185
  C:419DH         LINE#         186
  C:41A0H         LINE#         187
  C:41A3H         LINE#         188
  C:41AAH         LINE#         189
  C:41B4H         LINE#         190
  C:41B4H         LINE#         191
  C:41BAH         LINE#         192
  C:41BEH         LINE#         193
  C:41C3H         LINE#         194
  C:41C3H         LINE#         195
  C:41C8H         LINE#         196
  C:41C8H         LINE#         198
  C:41CDH         LINE#         199
  C:41CEH         LINE#         200
  C:41D6H         LINE#         201
  C:41D6H         LINE#         203
  C:41EBH         LINE#         204
  C:41F0H         LINE#         205
  C:41F1H         LINE#         207
  C:41F9H         LINE#         208
  C:41F9H         LINE#         212
  C:4204H         LINE#         213
  C:420AH         LINE#         217
  C:420EH         LINE#         218
  C:4218H         LINE#         219
  C:4218H         LINE#         220
  C:421CH         LINE#         221
  C:4221H         LINE#         222
  C:4227H         LINE#         223
  C:422DH         LINE#         224
BL51 BANKED LINKER/LOCATER V6.22.2.0                                                  11/01/2022  15:49:49  PAGE 93


  C:422DH         LINE#         225
  C:423AH         LINE#         226
  C:423AH         LINE#         227
  C:423CH         LINE#         228
  C:423FH         LINE#         230
  C:423FH         LINE#         231
  C:424CH         LINE#         232
  C:424CH         LINE#         233
  C:4252H         LINE#         234
  C:4258H         LINE#         235
  C:425AH         LINE#         236
  C:425FH         LINE#         238
  C:4262H         LINE#         241
  C:4267H         LINE#         242
  C:4268H         LINE#         243
  C:4270H         LINE#         244
  C:4270H         LINE#         246
  C:4271H         LINE#         247
  C:4271H         LINE#         249
  -------         ENDPROC       TIME_PROCESS
  -------         PROC          GET_TEMPHUTSTARTFLAG
  C:69D8H         LINE#         253
  C:69D8H         LINE#         254
  C:69D8H         LINE#         255
  C:69DDH         LINE#         256
  -------         ENDPROC       GET_TEMPHUTSTARTFLAG
  -------         PROC          CLR__TEMPHUTSTARTFLAG
  C:69DEH         LINE#         258
  C:69DEH         LINE#         259
  C:69DEH         LINE#         260
  C:69E3H         LINE#         261
  -------         ENDPROC       CLR__TEMPHUTSTARTFLAG
  -------         PROC          GET_SAVEADDR
  C:69E4H         LINE#         263
  C:69E4H         LINE#         264
  C:69E4H         LINE#         265
  C:69E9H         LINE#         266
  -------         ENDPROC       GET_SAVEADDR
  -------         PROC          GET_ONECIRCLESAVEFLAG
  C:69EAH         LINE#         268
  C:69EAH         LINE#         269
  C:69EAH         LINE#         270
  C:69EFH         LINE#         271
  -------         ENDPROC       GET_ONECIRCLESAVEFLAG
  -------         PROC          _SET_ONECIRCLE_FLAG
  D:0007H         SYMBOL        Flag
  C:69F0H         LINE#         273
  C:69F0H         LINE#         274
  C:69F0H         LINE#         275
  C:69F5H         LINE#         276
  -------         ENDPROC       _SET_ONECIRCLE_FLAG
  -------         PROC          _SET_SAVE_ADDRP
  D:0007H         SYMBOL        Addr
  C:69F6H         LINE#         278
  C:69F6H         LINE#         279
  C:69F6H         LINE#         280
  C:69FBH         LINE#         281
BL51 BANKED LINKER/LOCATER V6.22.2.0                                                  11/01/2022  15:49:49  PAGE 94


  -------         ENDPROC       _SET_SAVE_ADDRP
  -------         PROC          GET_NTCTEMP
  C:6967H         LINE#         283
  C:6967H         LINE#         284
  C:6967H         LINE#         285
  C:696FH         LINE#         286
  -------         ENDPROC       GET_NTCTEMP
  -------         PROC          GET_TEMPHUB_STA
  C:69FCH         LINE#         288
  C:69FCH         LINE#         289
  C:69FCH         LINE#         290
  C:6A01H         LINE#         291
  -------         ENDPROC       GET_TEMPHUB_STA
  -------         ENDMOD        TIMER0

  -------         MODULE        UART1_USER
  C:0000H         SYMBOL        _ICE_DUMMY_
  D:0080H         PUBLIC        P0
  D:00B5H         PUBLIC        P2M1
  D:0090H         PUBLIC        P1
  D:00B6H         PUBLIC        P2M2
  D:00A0H         PUBLIC        P2
  D:00B0H         PUBLIC        P3
  D:00D8H         PUBLIC        P4
  D:009CH         PUBLIC        EIE1
  B:00A8H.7       PUBLIC        EA
  D:00A8H         PUBLIC        IE
  D:00B8H         PUBLIC        IP
  C:6170H         PUBLIC        _Uart1senddata
  D:0098H         PUBLIC        SCON
  D:0088H         PUBLIC        TCON
  D:0091H         PUBLIC        SFRS
  D:00C0H         PUBLIC        I2C0CON
  D:00E8H         PUBLIC        I2C1CON
  D:00F8H         PUBLIC        S1CON
  C:60E8H         PUBLIC        Init_UART1
  D:00C8H         PUBLIC        T2CON
  D:00D0H         PUBLIC        PSW
  D:00F3H         PUBLIC        P2MF32
  -------         PROC          INIT_UART1
  C:60E8H         LINE#         4
  C:60E8H         LINE#         5
  C:60E8H         LINE#         6
  C:60F1H         LINE#         7
  C:60FAH         LINE#         8
  C:6103H         LINE#         9
  C:610CH         LINE#         11
  C:6125H         LINE#         12
  C:612BH         LINE#         13
  C:612DH         LINE#         14
  -------         ENDPROC       INIT_UART1
  -------         PROC          _UART1SENDDATA
  X:06D1H         SYMBOL        Data
  X:06D4H         SYMBOL        len
  -------         DO            
  X:06D5H         SYMBOL        i
  -------         ENDDO         
BL51 BANKED LINKER/LOCATER V6.22.2.0                                                  11/01/2022  15:49:49  PAGE 95


  C:6170H         LINE#         17
  C:617EH         LINE#         18
  C:617EH         LINE#         20
  C:618DH         LINE#         21
  C:618DH         LINE#         22
  C:61A6H         LINE#         24
  C:61AEH         LINE#         25
  -------         ENDPROC       _UART1SENDDATA
  -------         ENDMOD        UART1_USER

  -------         MODULE        UART2_USER
  C:0000H         SYMBOL        _ICE_DUMMY_
  D:00F4H         PUBLIC        P2MF54
  D:0080H         PUBLIC        P0
  D:00B5H         PUBLIC        P2M1
  D:0090H         PUBLIC        P1
  D:00B6H         PUBLIC        P2M2
  D:00A0H         PUBLIC        P2
  D:00B0H         PUBLIC        P3
  D:00D8H         PUBLIC        P4
  B:00A8H.7       PUBLIC        EA
  D:00A8H         PUBLIC        IE
  D:00B8H         PUBLIC        IP
  C:61AFH         PUBLIC        _Uart2senddata
  D:0098H         PUBLIC        SCON
  D:0088H         PUBLIC        TCON
  D:0091H         PUBLIC        SFRS
  D:00C0H         PUBLIC        I2C0CON
  D:00E8H         PUBLIC        I2C1CON
  D:00DDH         PUBLIC        SC0IE
  D:00F8H         PUBLIC        S1CON
  C:612EH         PUBLIC        Init_UART2
  D:00C8H         PUBLIC        T2CON
  D:00D0H         PUBLIC        PSW
  -------         PROC          INIT_UART2
  C:612EH         LINE#         3
  C:612EH         LINE#         4
  C:612EH         LINE#         5
  C:6137H         LINE#         6
  C:6140H         LINE#         7
  C:6149H         LINE#         8
  C:6152H         LINE#         10
  C:6167H         LINE#         11
  C:616DH         LINE#         12
  C:616FH         LINE#         14
  -------         ENDPROC       INIT_UART2
  -------         PROC          _UART2SENDDATA
  X:0733H         SYMBOL        Data
  X:0736H         SYMBOL        len
  -------         DO            
  X:0737H         SYMBOL        i
  -------         ENDDO         
  C:61AFH         LINE#         16
  C:61BDH         LINE#         17
  C:61BDH         LINE#         19
  C:61CCH         LINE#         20
  C:61CCH         LINE#         21
BL51 BANKED LINKER/LOCATER V6.22.2.0                                                  11/01/2022  15:49:49  PAGE 96


  C:61E5H         LINE#         23
  C:61EDH         LINE#         24
  -------         ENDPROC       _UART2SENDDATA
  -------         ENDMOD        UART2_USER

  -------         MODULE        UART3_USER
  C:0000H         SYMBOL        _ICE_DUMMY_
  D:00B3H         PUBLIC        P1M1
  D:0080H         PUBLIC        P0
  D:00B4H         PUBLIC        P1M2
  D:0090H         PUBLIC        P1
  D:00A0H         PUBLIC        P2
  D:00B0H         PUBLIC        P3
  D:00D8H         PUBLIC        P4
  D:00A8H         PUBLIC        IE
  D:00B8H         PUBLIC        IP
  D:0098H         PUBLIC        SCON
  D:0088H         PUBLIC        TCON
  D:0091H         PUBLIC        SFRS
  D:00C0H         PUBLIC        I2C0CON
  D:00E8H         PUBLIC        I2C1CON
  D:00F8H         PUBLIC        S1CON
  D:00C8H         PUBLIC        T2CON
  C:6268H         PUBLIC        Init_UART3
  D:00FDH         PUBLIC        P1MF10
  D:00FEH         PUBLIC        P1MF32
  D:00D0H         PUBLIC        PSW
  C:68EEH         PUBLIC        _putchar
  -------         PROC          INIT_UART3
  C:6268H         LINE#         3
  C:6268H         LINE#         4
  C:6268H         LINE#         5
  C:6271H         LINE#         6
  C:627AH         LINE#         7
  C:6283H         LINE#         8
  C:628CH         LINE#         9
  C:62A1H         LINE#         15
  -------         ENDPROC       INIT_UART3
  -------         PROC          _PUTCHAR
  X:0751H         SYMBOL        c
  C:68EEH         LINE#         18
  C:68F3H         LINE#         19
  C:68F3H         LINE#         21
  C:68F6H         LINE#         23
  C:68FBH         LINE#         24
  -------         ENDPROC       _PUTCHAR
  -------         ENDMOD        UART3_USER

  -------         MODULE        WDT
  C:0000H         SYMBOL        _ICE_DUMMY_
  D:0080H         PUBLIC        P0
  D:0090H         PUBLIC        P1
  D:00A0H         PUBLIC        P2
  D:00B0H         PUBLIC        P3
  D:00D8H         PUBLIC        P4
  B:00A8H.7       PUBLIC        EA
  D:00A8H         PUBLIC        IE
BL51 BANKED LINKER/LOCATER V6.22.2.0                                                  11/01/2022  15:49:49  PAGE 97


  D:00C7H         PUBLIC        TA
  D:00B8H         PUBLIC        IP
  D:0098H         PUBLIC        SCON
  D:0088H         PUBLIC        TCON
  D:0091H         PUBLIC        SFRS
  D:00C0H         PUBLIC        I2C0CON
  D:00E8H         PUBLIC        I2C1CON
  D:00F8H         PUBLIC        S1CON
  C:630FH         PUBLIC        FEED_WDT
  C:61EEH         PUBLIC        WDT_Init
  D:00C8H         PUBLIC        T2CON
  D:00D0H         PUBLIC        PSW
  D:00AAH         PUBLIC        WDCON
  -------         PROC          WDT_INIT
  C:61EEH         LINE#         2
  C:61EEH         LINE#         3
  C:61EEH         LINE#         4
  C:61F7H         LINE#         10
  C:620DH         LINE#         11
  C:6222H         LINE#         12
  C:622BH         LINE#         13
  -------         ENDPROC       WDT_INIT
  -------         PROC          FEED_WDT
  C:630FH         LINE#         15
  C:630FH         LINE#         16
  C:630FH         LINE#         17
  C:6325H         LINE#         18
  C:633AH         LINE#         19
  C:6343H         LINE#         20
  -------         ENDPROC       FEED_WDT
  -------         ENDMOD        WDT

  -------         MODULE        WIFI
  C:0000H         SYMBOL        _ICE_DUMMY_
  D:0080H         PUBLIC        P0
  D:0090H         PUBLIC        P1
  D:00A0H         PUBLIC        P2
  D:00B0H         PUBLIC        P3
  D:00D8H         PUBLIC        P4
  C:6922H         PUBLIC        Init_Wifi
  D:00A8H         PUBLIC        IE
  D:00B8H         PUBLIC        IP
  B:0090H.3       PUBLIC        P13
  D:0098H         PUBLIC        SCON
  D:0088H         PUBLIC        TCON
  D:00C0H         PUBLIC        I2C0CON
  D:00E8H         PUBLIC        I2C1CON
  D:00F8H         PUBLIC        S1CON
  D:00C8H         PUBLIC        T2CON
  D:00D0H         PUBLIC        PSW
  -------         PROC          INIT_WIFI
  C:6922H         LINE#         45
  C:6922H         LINE#         46
  C:6922H         LINE#         47
  C:692BH         LINE#         48
  C:692DH         LINE#         49
  -------         ENDPROC       INIT_WIFI
BL51 BANKED LINKER/LOCATER V6.22.2.0                                                  11/01/2022  15:49:49  PAGE 98


  -------         ENDMOD        WIFI

  -------         MODULE        CRC16
  C:0000H         SYMBOL        _ICE_DUMMY_
  D:0080H         PUBLIC        P0
  D:0090H         PUBLIC        P1
  D:00A0H         PUBLIC        P2
  D:00B0H         PUBLIC        P3
  D:00D8H         PUBLIC        P4
  D:00A8H         PUBLIC        IE
  C:5EC5H         PUBLIC        _CRC16MODBUS
  D:00B8H         PUBLIC        IP
  D:0098H         PUBLIC        SCON
  D:0088H         PUBLIC        TCON
  X:0000H         PUBLIC        aucCRCHi
  X:0100H         PUBLIC        aucCRCLo
  D:00C0H         PUBLIC        I2C0CON
  D:00E8H         PUBLIC        I2C1CON
  D:00F8H         PUBLIC        S1CON
  D:00C8H         PUBLIC        T2CON
  D:00D0H         PUBLIC        PSW
  -------         PROC          _CRC16MODBUS
  X:06D6H         SYMBOL        pucFrame
  X:06D9H         SYMBOL        usLen
  -------         DO            
  D:0007H         SYMBOL        ucCRCHi
  D:0005H         SYMBOL        ucCRCLo
  D:0002H         SYMBOL        iIndex
  -------         ENDDO         
  C:5EC5H         LINE#         48
  C:5ED3H         LINE#         49
  C:5ED3H         LINE#         50
  C:5ED5H         LINE#         51
  C:5ED7H         LINE#         53
  C:5EE1H         LINE#         54
  C:5EE1H         LINE#         55
  C:5EF8H         LINE#         56
  C:5F04H         LINE#         57
  C:5F10H         LINE#         58
  C:5F12H         LINE#         59
  C:5F16H         LINE#         60
  -------         ENDPROC       _CRC16MODBUS
  -------         ENDMOD        CRC16

  -------         MODULE        BC3602
  C:0000H         SYMBOL        _ICE_DUMMY_
  D:0080H         PUBLIC        P0
  D:0090H         PUBLIC        P1
  D:00A0H         PUBLIC        P2
  C:6A02H         PUBLIC        Get_RF_Mode
  D:00B0H         PUBLIC        P3
  D:00D8H         PUBLIC        P4
  B:00A8H.7       PUBLIC        EA
  C:6970H         PUBLIC        _SpiWriteStrobeCMD
  C:6344H         PUBLIC        RFWriteSyncword
  C:6445H         PUBLIC        RFCalibration
  C:3EB0H         PUBLIC        BC3602_Config
BL51 BANKED LINKER/LOCATER V6.22.2.0                                                  11/01/2022  15:49:49  PAGE 99


  D:00A8H         PUBLIC        IE
  C:5E1BH         PUBLIC        BC3602_RF_Process
  C:5A71H         PUBLIC        RF_Init
  X:0399H         PUBLIC        Frequency_REGS_TALBE
  X:03A1H         PUBLIC        PACKET_REGS_TALBE
  D:00B8H         PUBLIC        IP
  C:56E2H         PUBLIC        _KEY_BC3602
  C:692EH         PUBLIC        _SpiReadRegCMD
  C:6006H         PUBLIC        _ReadFIFO
  C:6817H         PUBLIC        RFGetClrRFIrq
  X:03B7H         PUBLIC        mRFSync
  X:03BBH         PUBLIC        COMMON_REGS_TALBE
  X:03BDH         PUBLIC        BANK0_REGS_TALBE
  X:03D1H         PUBLIC        BANK1_REGS_TALBE
  C:68CEH         PUBLIC        RFXtalReady
  X:03D9H         PUBLIC        FCF_REGS_TALBE
  X:03FFH         PUBLIC        BANK2_REGS_TALBE
  X:0415H         PUBLIC        BC3602_SYNCWORD
  B:0090H.0       PUBLIC        P10
  C:0026H         PUBLIC        _SpiWriteRegCMD
  C:5FB7H         PUBLIC        _WriteFIFO
  B:0090H.3       PUBLIC        P13
  D:0098H         PUBLIC        SCON
  D:0088H         PUBLIC        TCON
  C:5F68H         PUBLIC        RFWriteFreq
  D:0091H         PUBLIC        SFRS
  C:60A0H         PUBLIC        _RFWriteBuf
  X:0419H         PUBLIC        RF_RXFIFO
  X:0439H         PUBLIC        RF_TXFIFO
  C:64A3H         PUBLIC        PinInterrupt_ISR
  D:00C0H         PUBLIC        I2C0CON
  D:00E8H         PUBLIC        I2C1CON
  C:66CFH         PUBLIC        _RFSetPower
  X:0459H         PUBLIC        TxPowerValue
  C:67B7H         PUBLIC        _DATA_Process
  D:00CAH         PUBLIC        PIF
  C:62D9H         PUBLIC        ResetLvRF
  C:4A02H         PUBLIC        _SimpleFIFO_RX_Process
  X:0472H         PUBLIC        IRQIO_REGS_TALBE
  C:4E28H         PUBLIC        _SimpleFIFO_TX_Process
  D:00F8H         PUBLIC        S1CON
  X:047CH         PUBLIC        RF_IRQ
  D:00C8H         PUBLIC        T2CON
  X:047DH         PUBLIC        Mflag
  C:5666H         PUBLIC        RF_Finished_Process
  X:0482H         PUBLIC        DM_REGS_TALBE
  C:5058H         PUBLIC        RFSetDRPram
  X:0498H         PUBLIC        CBPF_REGS_TALBE
  D:00FEH         PUBLIC        P1MF32
  D:00D0H         PUBLIC        PSW
  X:049EH         PUBLIC        RF_RXFIFOSAVE
  C:6474H         PUBLIC        LircCalibration
  -------         PROC          _SPIWRITEREGCMD
  D:0007H         SYMBOL        CMD
  X:06D2H         SYMBOL        DATA
  C:0026H         LINE#         36
  C:002BH         LINE#         37
BL51 BANKED LINKER/LOCATER V6.22.2.0                                                  11/01/2022  15:49:49  PAGE 100


  C:002BH         LINE#         39
  C:002DH         LINE#         40
  C:0030H         LINE#         41
  C:0038H         LINE#         43
  C:003AH         LINE#         44
  -------         ENDPROC       _SPIWRITEREGCMD
  -------         PROC          _SPIREADREGCMD
  D:0007H         SYMBOL        CMD
  -------         DO            
  D:0007H         SYMBOL        ReadDATA
  -------         ENDDO         
  C:692EH         LINE#         51
  C:692EH         LINE#         52
  C:692EH         LINE#         55
  C:6930H         LINE#         56
  C:6933H         LINE#         57
  C:6936H         LINE#         59
  C:6938H         LINE#         60
  C:6938H         LINE#         61
  -------         ENDPROC       _SPIREADREGCMD
  -------         PROC          _SPIWRITESTROBECMD
  D:0007H         SYMBOL        CMD
  C:6970H         LINE#         68
  C:6970H         LINE#         69
  C:6970H         LINE#         71
  C:6972H         LINE#         72
  C:6975H         LINE#         74
  C:6977H         LINE#         75
  -------         ENDPROC       _SPIWRITESTROBECMD
  -------         PROC          RFWRITEFREQ
  -------         DO            
  X:06D1H         SYMBOL        a
  -------         ENDDO         
  C:5F68H         LINE#         84
  C:5F68H         LINE#         85
  C:5F68H         LINE#         86
  C:5F6DH         LINE#         87
  C:5F77H         LINE#         88
  C:5F7EH         LINE#         89
  C:5F83H         LINE#         91
  C:5FB6H         LINE#         92
  -------         ENDPROC       RFWRITEFREQ
  -------         PROC          RFSETDRPRAM
  -------         DO            
  X:06D1H         SYMBOL        a
  -------         ENDDO         
  C:5058H         LINE#         99
  C:5058H         LINE#         100
  C:5058H         LINE#         101
  C:505DH         LINE#         102
  C:5062H         LINE#         103
  C:5095H         LINE#         104
  C:509AH         LINE#         105
  C:50CDH         LINE#         106
  C:50D2H         LINE#         107
  C:5105H         LINE#         108
  C:510AH         LINE#         109
BL51 BANKED LINKER/LOCATER V6.22.2.0                                                  11/01/2022  15:49:49  PAGE 101


  -------         ENDPROC       RFSETDRPRAM
  -------         PROC          _RFSETPOWER
  D:0007H         SYMBOL        band_sel
  D:0005H         SYMBOL        power
  C:66CFH         LINE#         111
  C:66CFH         LINE#         112
  C:66CFH         LINE#         113
  C:66EEH         LINE#         114
  -------         ENDPROC       _RFSETPOWER
  -------         PROC          RFXTALREADY
  -------         DO            
  D:0007H         SYMBOL        a
  -------         ENDDO         
  C:68CEH         LINE#         121
  C:68CEH         LINE#         122
  C:68CEH         LINE#         123
  C:68D0H         LINE#         124
  C:68D3H         LINE#         125
  C:68D3H         LINE#         126
  C:68D8H         LINE#         127
  C:68DCH         LINE#         128
  C:68DEH         LINE#         129
  -------         ENDPROC       RFXTALREADY
  -------         PROC          RFCALIBRATION
  -------         DO            
  X:06D1H         SYMBOL        a
  -------         ENDDO         
  C:6445H         LINE#         136
  C:6445H         LINE#         137
  C:6445H         LINE#         138
  C:644AH         LINE#         139
  C:6454H         LINE#         140
  C:6459H         LINE#         141
  C:645EH         LINE#         142
  C:6464H         LINE#         143
  C:6464H         LINE#         144
  C:646EH         LINE#         145
  C:6471H         LINE#         146
  C:6473H         LINE#         147
  -------         ENDPROC       RFCALIBRATION
  -------         PROC          LIRCCALIBRATION
  -------         DO            
  X:06D1H         SYMBOL        a
  -------         ENDDO         
  C:6474H         LINE#         155
  C:6474H         LINE#         156
  C:6474H         LINE#         157
  C:6479H         LINE#         158
  C:6483H         LINE#         159
  C:6488H         LINE#         160
  C:648DH         LINE#         161
  C:6493H         LINE#         162
  C:6493H         LINE#         163
  C:649DH         LINE#         164
  C:64A0H         LINE#         165
  C:64A2H         LINE#         166
  -------         ENDPROC       LIRCCALIBRATION
BL51 BANKED LINKER/LOCATER V6.22.2.0                                                  11/01/2022  15:49:49  PAGE 102


  -------         PROC          RFGETCLRRFIRQ
  -------         DO            
  X:06D1H         SYMBOL        irq
  -------         ENDDO         
  C:6817H         LINE#         173
  C:6817H         LINE#         174
  C:6817H         LINE#         177
  C:6822H         LINE#         178
  C:6827H         LINE#         180
  C:682CH         LINE#         181
  -------         ENDPROC       RFGETCLRRFIRQ
  -------         PROC          RF_INIT
  C:5A71H         LINE#         183
  C:5A71H         LINE#         184
  C:5A71H         LINE#         186
  C:5A74H         LINE#         187
  C:5A79H         LINE#         189
  C:5A7CH         LINE#         190
  C:5A81H         LINE#         193
  C:5A83H         LINE#         195
  C:5A89H         LINE#         196
  C:5A92H         LINE#         197
  C:5A9BH         LINE#         198
  C:5AADH         LINE#         200
  C:5AB0H         LINE#         201
  C:5AB3H         LINE#         203
  C:5AB6H         LINE#         204
  C:5AB9H         LINE#         205
  C:5AC0H         LINE#         207
  C:5AC2H         LINE#         208
  C:5AC5H         LINE#         209
  C:5AC8H         LINE#         210
  C:5ACBH         LINE#         211
  C:5ACEH         LINE#         212
  C:5AD3H         LINE#         213
  C:5AD9H         LINE#         214
  -------         ENDPROC       RF_INIT
  -------         PROC          RESETLVRF
  -------         DO            
  X:06D1H         SYMBOL        a
  -------         ENDDO         
  C:62D9H         LINE#         221
  C:62D9H         LINE#         222
  C:62D9H         LINE#         223
  C:62DEH         LINE#         224
  C:62E4H         LINE#         225
  C:62E4H         LINE#         226
  C:62EEH         LINE#         227
  C:62F3H         LINE#         228
  C:62F8H         LINE#         229
  C:6302H         LINE#         230
  C:6307H         LINE#         231
  C:630CH         LINE#         232
  C:630EH         LINE#         233
  -------         ENDPROC       RESETLVRF
  -------         PROC          BC3602_CONFIG
  -------         DO            
BL51 BANKED LINKER/LOCATER V6.22.2.0                                                  11/01/2022  15:49:49  PAGE 103


  X:06D1H         SYMBOL        a
  -------         ENDDO         
  C:3EB0H         LINE#         241
  C:3EB0H         LINE#         242
  C:3EB0H         LINE#         243
  C:3EB5H         LINE#         245
  C:3EE4H         LINE#         247
  C:3F17H         LINE#         249
  C:3F4AH         LINE#         252
  C:3F4FH         LINE#         253
  C:3F82H         LINE#         255
  C:3F87H         LINE#         256
  C:3FBAH         LINE#         258
  C:3FBFH         LINE#         259
  C:3FF2H         LINE#         260
  C:3FF7H         LINE#         261
  -------         ENDPROC       BC3602_CONFIG
  -------         PROC          _RFWRITEBUF
  D:0007H         SYMBOL        CMD
  X:06D1H         SYMBOL        length
  X:06D2H         SYMBOL        Data
  -------         DO            
  X:06D5H         SYMBOL        a
  -------         ENDDO         
  C:60A0H         LINE#         269
  C:60AEH         LINE#         270
  C:60AEH         LINE#         273
  C:60B0H         LINE#         274
  C:60B3H         LINE#         275
  C:60E5H         LINE#         277
  C:60E7H         LINE#         278
  -------         ENDPROC       _RFWRITEBUF
  -------         PROC          RFWRITESYNCWORD
  -------         DO            
  D:0007H         SYMBOL        a
  -------         ENDDO         
  C:6344H         LINE#         286
  C:6344H         LINE#         287
  C:6344H         LINE#         328
  C:6350H         LINE#         329
  C:636BH         LINE#         330
  C:6378H         LINE#         334
  -------         ENDPROC       RFWRITESYNCWORD
  -------         PROC          _DATA_PROCESS
  D:0001H         SYMBOL        FIFO
  C:67B7H         LINE#         341
  C:67B7H         LINE#         342
  C:67B7H         LINE#         343
  C:67BEH         LINE#         344
  C:67C3H         LINE#         348
  C:67CAH         LINE#         349
  C:67CFH         LINE#         350
  -------         ENDPROC       _DATA_PROCESS
  -------         PROC          _KEY_BC3602
  D:0007H         SYMBOL        key_status
  C:56E2H         LINE#         357
  C:56E2H         LINE#         358
BL51 BANKED LINKER/LOCATER V6.22.2.0                                                  11/01/2022  15:49:49  PAGE 104


  C:56E2H         LINE#         359
  C:56F1H         LINE#         360
  C:56F1H         LINE#         361
  C:56F1H         LINE#         362
  C:56F7H         LINE#         363
  C:56FFH         LINE#         364
  C:5704H         LINE#         365
  C:570AH         LINE#         366
  C:570BH         LINE#         368
  C:570BH         LINE#         369
  C:5711H         LINE#         370
  C:571AH         LINE#         371
  C:571FH         LINE#         372
  C:5725H         LINE#         373
  C:5726H         LINE#         375
  C:5726H         LINE#         376
  C:572CH         LINE#         377
  C:5735H         LINE#         378
  C:573AH         LINE#         379
  C:5740H         LINE#         380
  C:5741H         LINE#         382
  C:5741H         LINE#         383
  C:5747H         LINE#         384
  C:5750H         LINE#         385
  C:5755H         LINE#         386
  C:575BH         LINE#         387
  C:575BH         LINE#         389
  C:575BH         LINE#         390
  C:575BH         LINE#         391
  C:575BH         LINE#         392
  -------         ENDPROC       _KEY_BC3602
  -------         PROC          PININTERRUPT_ISR
  C:64A3H         LINE#         394
  C:64B0H         LINE#         396
  C:64B2H         LINE#         398
  C:64B5H         LINE#         399
  C:64BBH         LINE#         400
  C:64BBH         LINE#         401
  C:64BBH         LINE#         402
  C:64C2H         LINE#         403
  C:64C2H         LINE#         404
  C:64C2H         LINE#         405
  C:64C2H         LINE#         406
  C:64C2H         LINE#         407
  C:64C5H         LINE#         409
  C:64C7H         LINE#         410
  -------         ENDPROC       PININTERRUPT_ISR
  -------         PROC          GET_RF_MODE
  C:6A02H         LINE#         412
  C:6A02H         LINE#         413
  C:6A02H         LINE#         414
  C:6A07H         LINE#         415
  -------         ENDPROC       GET_RF_MODE
  -------         PROC          _WRITEFIFO
  X:0738H         SYMBOL        rf_fifo
  X:073BH         SYMBOL        payload_length
  -------         DO            
BL51 BANKED LINKER/LOCATER V6.22.2.0                                                  11/01/2022  15:49:49  PAGE 105


  X:073CH         SYMBOL        a
  -------         ENDDO         
  C:5FB7H         LINE#         424
  C:5FC5H         LINE#         425
  C:5FC5H         LINE#         426
  C:5FC8H         LINE#         427
  C:5FCAH         LINE#         428
  C:5FCFH         LINE#         429
  C:5FDFH         LINE#         430
  C:5FDFH         LINE#         431
  C:5FF1H         LINE#         432
  C:5FFBH         LINE#         433
  C:6003H         LINE#         434
  C:6005H         LINE#         435
  -------         ENDPROC       _WRITEFIFO
  -------         PROC          _READFIFO
  X:073DH         SYMBOL        rf_fifo
  X:0740H         SYMBOL        length
  -------         DO            
  X:0741H         SYMBOL        a
  -------         ENDDO         
  C:6006H         LINE#         442
  C:6014H         LINE#         443
  C:6014H         LINE#         444
  C:6017H         LINE#         445
  C:6019H         LINE#         446
  C:601EH         LINE#         447
  C:602EH         LINE#         448
  C:602EH         LINE#         449
  C:6040H         LINE#         450
  C:604AH         LINE#         451
  C:6052H         LINE#         452
  C:6054H         LINE#         453
  -------         ENDPROC       _READFIFO
  -------         PROC          _SIMPLEFIFO_TX_PROCESS
  X:0703H         SYMBOL        step
  X:0706H         SYMBOL        IRQ
  X:0709H         SYMBOL        Mode
  C:4E28H         LINE#         464
  C:4E33H         LINE#         465
  C:4E33H         LINE#         466
  C:4E4AH         LINE#         467
  C:4E4AH         LINE#         468
  C:4E4AH         LINE#         469
  C:4E4FH         LINE#         470
  C:4E52H         LINE#         472
  C:4E59H         LINE#         474
  C:4E5EH         LINE#         475
  C:4E65H         LINE#         476
  C:4E70H         LINE#         478
  C:4E75H         LINE#         479
  C:4E85H         LINE#         480
  C:4E95H         LINE#         481
  C:4E96H         LINE#         483
  C:4E96H         LINE#         484
  C:4E99H         LINE#         485
  C:4EABH         LINE#         487
BL51 BANKED LINKER/LOCATER V6.22.2.0                                                  11/01/2022  15:49:49  PAGE 106


  C:4EB2H         LINE#         488
  C:4EB2H         LINE#         489
  C:4EB7H         LINE#         490
  C:4EC7H         LINE#         491
  C:4ED6H         LINE#         492
  C:4ED6H         LINE#         493
  C:4ED7H         LINE#         495
  C:4ED7H         LINE#         496
  C:4EE6H         LINE#         497
  C:4EE6H         LINE#         498
  C:4EE6H         LINE#         499
  -------         ENDPROC       _SIMPLEFIFO_TX_PROCESS
  -------         PROC          _SIMPLEFIFO_RX_PROCESS
  X:070CH         SYMBOL        step
  X:070FH         SYMBOL        IRQ
  X:0712H         SYMBOL        Mode
  -------         DO            
  D:0007H         SYMBOL        a
  -------         ENDDO         
  C:4A02H         LINE#         507
  C:4A0DH         LINE#         508
  C:4A0DH         LINE#         511
  C:4A19H         LINE#         512
  C:4A19H         LINE#         513
  C:4A19H         LINE#         514
  C:4A1EH         LINE#         515
  C:4A21H         LINE#         517
  C:4A28H         LINE#         519
  C:4A34H         LINE#         520
  C:4A43H         LINE#         522
  C:4A48H         LINE#         523
  C:4A4FH         LINE#         525
  C:4A54H         LINE#         526
  C:4A64H         LINE#         527
  C:4A74H         LINE#         528
  C:4A75H         LINE#         530
  C:4A75H         LINE#         531
  C:4A78H         LINE#         532
  C:4A8AH         LINE#         534
  C:4A93H         LINE#         535
  C:4A93H         LINE#         536
  C:4A97H         LINE#         537
  C:4AA2H         LINE#         538
  C:4AB5H         LINE#         539
  C:4ABAH         LINE#         540
  C:4ACAH         LINE#         541
  C:4AD9H         LINE#         542
  C:4AD9H         LINE#         543
  C:4ADAH         LINE#         545
  C:4ADAH         LINE#         546
  C:4AE9H         LINE#         547
  C:4AE9H         LINE#         548
  C:4AE9H         LINE#         549
  -------         ENDPROC       _SIMPLEFIFO_RX_PROCESS
  -------         PROC          RF_FINISHED_PROCESS
  C:5666H         LINE#         559
  C:5666H         LINE#         560
BL51 BANKED LINKER/LOCATER V6.22.2.0                                                  11/01/2022  15:49:49  PAGE 107


  C:5666H         LINE#         561
  C:566DH         LINE#         562
  C:566DH         LINE#         563
  C:566FH         LINE#         564
  C:5675H         LINE#         566
  C:5687H         LINE#         567
  C:5687H         LINE#         568
  C:5687H         LINE#         570
  C:568CH         LINE#         571
  C:568EH         LINE#         572
  C:568EH         LINE#         574
  C:5693H         LINE#         575
  C:5695H         LINE#         576
  C:5695H         LINE#         578
  C:569AH         LINE#         579
  C:569CH         LINE#         580
  C:569CH         LINE#         582
  C:56A1H         LINE#         583
  C:56A1H         LINE#         584
  C:56A1H         LINE#         585
  C:56A1H         LINE#         586
  C:56A1H         LINE#         588
  C:56A1H         LINE#         590
  C:56A9H         LINE#         591
  C:56A9H         LINE#         592
  C:56ABH         LINE#         593
  C:56B1H         LINE#         594
  C:56B8H         LINE#         595
  C:56B8H         LINE#         599
  C:56B8H         LINE#         601
  C:56B8H         LINE#         602
  C:56CAH         LINE#         603
  C:56CAH         LINE#         604
  C:56CAH         LINE#         606
  C:56CFH         LINE#         607
  C:56D0H         LINE#         608
  C:56D0H         LINE#         610
  C:56D5H         LINE#         611
  C:56D6H         LINE#         612
  C:56D6H         LINE#         614
  C:56DBH         LINE#         615
  C:56DCH         LINE#         616
  C:56DCH         LINE#         618
  C:56E1H         LINE#         619
  C:56E1H         LINE#         620
  C:56E1H         LINE#         621
  C:56E1H         LINE#         622
  C:56E1H         LINE#         623
  C:56E1H         LINE#         624
  C:56E1H         LINE#         625
  -------         ENDPROC       RF_FINISHED_PROCESS
  -------         PROC          BC3602_RF_PROCESS
  C:5E1BH         LINE#         628
  C:5E1BH         LINE#         629
  C:5E1BH         LINE#         631
  C:5E23H         LINE#         632
  C:5E44H         LINE#         634
BL51 BANKED LINKER/LOCATER V6.22.2.0                                                  11/01/2022  15:49:49  PAGE 108


  C:5E4CH         LINE#         635
  C:5E6DH         LINE#         636
  C:5E70H         LINE#         638
  -------         ENDPROC       BC3602_RF_PROCESS
  -------         ENDMOD        BC3602

  -------         MODULE        BC3602_SPI
  C:0000H         SYMBOL        _ICE_DUMMY_
  D:0080H         PUBLIC        P0
  D:0090H         PUBLIC        P1
  D:00A0H         PUBLIC        P2
  D:00B0H         PUBLIC        P3
  D:00D8H         PUBLIC        P4
  D:00A8H         PUBLIC        IE
  D:00B8H         PUBLIC        IP
  C:63AEH         PUBLIC        SpiRead
  B:0080H.0       PUBLIC        P00
  B:0090H.0       PUBLIC        P10
  B:0080H.1       PUBLIC        P01
  D:0098H         PUBLIC        SCON
  D:0088H         PUBLIC        TCON
  C:6379H         PUBLIC        _SpiWrite
  D:00C0H         PUBLIC        I2C0CON
  D:00E8H         PUBLIC        I2C1CON
  C:65B2H         PUBLIC        _Set_RFSDIO_Dir
  D:00F8H         PUBLIC        S1CON
  D:00C8H         PUBLIC        T2CON
  C:672CH         PUBLIC        BC3602_SPI_IOConfig
  D:00D0H         PUBLIC        PSW
  -------         PROC          BC3602_SPI_IOCONFIG
  C:672CH         LINE#         3
  C:672CH         LINE#         4
  C:672CH         LINE#         6
  C:6735H         LINE#         7
  C:673AH         LINE#         8
  C:6743H         LINE#         9
  C:6745H         LINE#         10
  C:6747H         LINE#         11
  C:6749H         LINE#         12
  -------         ENDPROC       BC3602_SPI_IOCONFIG
  -------         PROC          _SET_RFSDIO_DIR
  X:06D7H         SYMBOL        Director
  C:65B2H         LINE#         14
  C:65B7H         LINE#         15
  C:65B7H         LINE#         16
  C:65B9H         LINE#         17
  C:65B9H         LINE#         18
  C:65C1H         LINE#         20
  C:65C2H         LINE#         21
  C:65CAH         LINE#         22
  C:65CAH         LINE#         23
  C:65D2H         LINE#         24
  C:65DAH         LINE#         25
  C:65DAH         LINE#         26
  -------         ENDPROC       _SET_RFSDIO_DIR
  -------         PROC          _SPIWRITE
  X:06D6H         SYMBOL        SIMD
BL51 BANKED LINKER/LOCATER V6.22.2.0                                                  11/01/2022  15:49:49  PAGE 109


  -------         DO            
  D:0007H         SYMBOL        cnt
  -------         ENDDO         
  C:6379H         LINE#         28
  C:637EH         LINE#         29
  C:637EH         LINE#         33
  C:6383H         LINE#         34
  C:638FH         LINE#         35
  C:638FH         LINE#         37
  C:6391H         LINE#         38
  C:6399H         LINE#         39
  C:639DH         LINE#         41
  C:639FH         LINE#         42
  C:63A6H         LINE#         44
  C:63A8H         LINE#         45
  C:63ABH         LINE#         47
  C:63ADH         LINE#         49
  -------         ENDPROC       _SPIWRITE
  -------         PROC          SPIREAD
  -------         DO            
  D:0003H         SYMBOL        cnt
  X:06D2H         SYMBOL        SIMD
  -------         ENDDO         
  C:63AEH         LINE#         57
  C:63AEH         LINE#         58
  C:63AEH         LINE#         60
  C:63B3H         LINE#         62
  C:63B8H         LINE#         64
  C:63BAH         LINE#         65
  C:63C6H         LINE#         66
  C:63C6H         LINE#         67
  C:63CEH         LINE#         69
  C:63D0H         LINE#         70
  C:63D3H         LINE#         71
  C:63D7H         LINE#         73
  C:63D9H         LINE#         74
  C:63DCH         LINE#         75
  C:63E1H         LINE#         77
  -------         ENDPROC       SPIREAD
  -------         ENDMOD        BC3602_SPI

  -------         MODULE        ?C?FPADD
  C:00BDH         PUBLIC        ?C?FPADD
  C:00B9H         PUBLIC        ?C?FPSUB
  -------         ENDMOD        ?C?FPADD

  -------         MODULE        ?C?FPMUL
  C:01AEH         PUBLIC        ?C?FPMUL
  -------         ENDMOD        ?C?FPMUL

  -------         MODULE        ?C?FPDIV
  C:02B7H         PUBLIC        ?C?FPDIV
  -------         ENDMOD        ?C?FPDIV

  -------         MODULE        ?C?FPCMP
  C:0356H         PUBLIC        ?C?FPCMP
  C:0354H         PUBLIC        ?C?FPCMP3
BL51 BANKED LINKER/LOCATER V6.22.2.0                                                  11/01/2022  15:49:49  PAGE 110


  -------         ENDMOD        ?C?FPCMP

  -------         MODULE        ?C?FCAST
  C:03D7H         PUBLIC        ?C?FCASTC
  C:03D2H         PUBLIC        ?C?FCASTI
  C:03CDH         PUBLIC        ?C?FCASTL
  -------         ENDMOD        ?C?FCAST

  -------         MODULE        ?C?CASTF
  C:040BH         PUBLIC        ?C?CASTF
  -------         ENDMOD        ?C?CASTF

  -------         MODULE        ?C?COPY
  C:055CH         PUBLIC        ?C?COPY
  -------         ENDMOD        ?C?COPY

  -------         MODULE        ?C?CLDPTR
  C:0582H         PUBLIC        ?C?CLDPTR
  -------         ENDMOD        ?C?CLDPTR

  -------         MODULE        ?C?CLDOPTR
  C:059BH         PUBLIC        ?C?CLDOPTR
  -------         ENDMOD        ?C?CLDOPTR

  -------         MODULE        ?C?CILDPTR
  C:05C8H         PUBLIC        ?C?CILDPTR
  -------         ENDMOD        ?C?CILDPTR

  -------         MODULE        ?C?CSTPTR
  C:05EAH         PUBLIC        ?C?CSTPTR
  -------         ENDMOD        ?C?CSTPTR

  -------         MODULE        ?C?CSTOPTR
  C:05FCH         PUBLIC        ?C?CSTOPTR
  -------         ENDMOD        ?C?CSTOPTR

  -------         MODULE        ?C?IMUL
  C:061EH         PUBLIC        ?C?IMUL
  -------         ENDMOD        ?C?IMUL

  -------         MODULE        ?C?UIDIV
  C:0630H         PUBLIC        ?C?UIDIV
  -------         ENDMOD        ?C?UIDIV

  -------         MODULE        ?C?IILDX
  C:0685H         PUBLIC        ?C?IILDX
  -------         ENDMOD        ?C?IILDX

  -------         MODULE        ?C?ILDIX
  C:069BH         PUBLIC        ?C?ILDIX
  -------         ENDMOD        ?C?ILDIX

  -------         MODULE        ?C?LMUL
  C:06B1H         PUBLIC        ?C?LMUL
  -------         ENDMOD        ?C?LMUL

  -------         MODULE        ?C?ULDIV
BL51 BANKED LINKER/LOCATER V6.22.2.0                                                  11/01/2022  15:49:49  PAGE 111


  C:073CH         PUBLIC        ?C?ULDIV
  -------         ENDMOD        ?C?ULDIV

  -------         MODULE        ?C?LNEG
  C:07CEH         PUBLIC        ?C?LNEG
  -------         ENDMOD        ?C?LNEG

  -------         MODULE        ?C?ULSHR
  C:07DCH         PUBLIC        ?C?ULSHR
  -------         ENDMOD        ?C?ULSHR

  -------         MODULE        ?C?LSTXDATA
  C:07EFH         PUBLIC        ?C?LSTXDATA
  -------         ENDMOD        ?C?LSTXDATA

  -------         MODULE        ?C?LSTKXDATA
  C:07FBH         PUBLIC        ?C?LSTKXDATA
  -------         ENDMOD        ?C?LSTKXDATA

  -------         MODULE        ?C?CCASE
  C:082CH         PUBLIC        ?C?CCASE
  -------         ENDMOD        ?C?CCASE

  -------         MODULE        ?C?MEMSET
  C:0852H         PUBLIC        ?C?MEMSET
  -------         ENDMOD        ?C?MEMSET

Program Size: data=12.7 xdata=1874 code=27144
LINK/LOCATE RUN COMPLETE.  0 WARNING(S),  0 ERROR(S)
