BL51 BANKED LINKER/LOCATER V6.22.2.0                                                    10/31/2022  08:45:44  PAGE 1


BL51 BANKED LINKER/LOCATER V6.22.2.0, INVOKED BY:
D:\KEIL_V5\C51\BIN\BL51.EXE .\Output\main.c.obj, .\Output\uart2.obj, .\Output\common.obj, .\Output\adc.obj, .\Output\gpi
>> o.obj, .\Output\i2c.obj, .\Output\uart3.obj, .\Output\uart.obj, .\Output\pwm0.obj, .\Output\pwm123.obj, .\Output\eepr
>> om.obj, .\Output\lcd.obj, .\Output\sys.obj, .\Output\STARTUP.obj, .\Output\ADC_USER.obj, .\Output\CO2.obj, .\Output\C
>> RC8_NRSC5.obj, .\Output\EEPROM_USER.obj, .\Output\KEY.obj, .\Output\LCD_User.obj, .\Output\LED.obj, .\Output\SHTC3.ob
>> j, .\Output\Timer0.obj, .\Output\UART1_USER.obj, .\Output\UART2_USER.obj, .\Output\UART3_USER.obj, .\Output\WDT.obj, 
>> .\Output\WIFI.obj, .\Output\CRC16.obj, .\Output\BC3602.obj, .\Output\BC3602_SPI.obj TO .\Output\Temp_Humi_CO2 PRINT (
>> .\LST\Temp_Humi_CO2.m51) RAMSIZE (256) DISABLEWARNING (16)


MEMORY MODEL: LARGE WITH FLOATING POINT ARITHMETIC


INPUT MODULES INCLUDED:
  .\Output\main.c.obj (MAIN_C)
  .\Output\uart2.obj (UART2)
  .\Output\common.obj (COMMON)
  .\Output\adc.obj (ADC)
  .\Output\gpio.obj (GPIO)
  .\Output\i2c.obj (I2C)
  .\Output\uart3.obj (UART3)
  .\Output\uart.obj (UART)
  .\Output\pwm0.obj (PWM0)
  .\Output\pwm123.obj (PWM123)
  .\Output\eeprom.obj (EEPROM)
  .\Output\lcd.obj (LCD)
  .\Output\sys.obj (SYS)
  .\Output\STARTUP.obj (?C_STARTUP)
  .\Output\ADC_USER.obj (ADC_USER)
  .\Output\CO2.obj (CO2)
  .\Output\CRC8_NRSC5.obj (CRC8_NRSC5)
  .\Output\EEPROM_USER.obj (EEPROM_USER)
  .\Output\KEY.obj (KEY)
  .\Output\LCD_User.obj (LCD_USER)
  .\Output\LED.obj (LED)
  .\Output\SHTC3.obj (SHTC3)
  .\Output\Timer0.obj (TIMER0)
  .\Output\UART1_USER.obj (UART1_USER)
  .\Output\UART2_USER.obj (UART2_USER)
  .\Output\UART3_USER.obj (UART3_USER)
  .\Output\WDT.obj (WDT)
  .\Output\WIFI.obj (WIFI)
  .\Output\CRC16.obj (CRC16)
  .\Output\BC3602.obj (BC3602)
  .\Output\BC3602_SPI.obj (BC3602_SPI)
  D:\KEIL_V5\C51\LIB\C51FPL.LIB (?C?FPADD)
  D:\KEIL_V5\C51\LIB\C51FPL.LIB (?C?FPMUL)
  D:\KEIL_V5\C51\LIB\C51FPL.LIB (?C?FPDIV)
  D:\KEIL_V5\C51\LIB\C51FPL.LIB (?C?FCAST)
  D:\KEIL_V5\C51\LIB\C51FPL.LIB (?C?CASTF)
  D:\KEIL_V5\C51\LIB\C51FPL.LIB (?C?FPGETOPN)
  D:\KEIL_V5\C51\LIB\C51L.LIB (?C_INIT)
  D:\KEIL_V5\C51\LIB\C51L.LIB (?C?COPY)
  D:\KEIL_V5\C51\LIB\C51L.LIB (?C?CLDPTR)
  D:\KEIL_V5\C51\LIB\C51L.LIB (?C?CLDOPTR)
  D:\KEIL_V5\C51\LIB\C51L.LIB (?C?CILDPTR)
  D:\KEIL_V5\C51\LIB\C51L.LIB (?C?CSTPTR)
  D:\KEIL_V5\C51\LIB\C51L.LIB (?C?CSTOPTR)
BL51 BANKED LINKER/LOCATER V6.22.2.0                                                  10/31/2022  08:45:44  PAGE 2


  D:\KEIL_V5\C51\LIB\C51L.LIB (?C?IMUL)
  D:\KEIL_V5\C51\LIB\C51L.LIB (?C?UIDIV)
  D:\KEIL_V5\C51\LIB\C51L.LIB (?C?IILDX)
  D:\KEIL_V5\C51\LIB\C51L.LIB (?C?ILDIX)
  D:\KEIL_V5\C51\LIB\C51L.LIB (?C?LMUL)
  D:\KEIL_V5\C51\LIB\C51L.LIB (?C?ULDIV)
  D:\KEIL_V5\C51\LIB\C51L.LIB (?C?LNEG)
  D:\KEIL_V5\C51\LIB\C51L.LIB (?C?ULSHR)
  D:\KEIL_V5\C51\LIB\C51L.LIB (?C?LSTXDATA)
  D:\KEIL_V5\C51\LIB\C51L.LIB (?C?LSTKXDATA)
  D:\KEIL_V5\C51\LIB\C51L.LIB (?C?CCASE)
  D:\KEIL_V5\C51\LIB\C51L.LIB (?C?MEMSET)


LINK MAP OF MODULE:  .\Output\Temp_Humi_CO2 (MAIN_C)


            TYPE    BASE      LENGTH    RELOCATION   SEGMENT NAME
            -----------------------------------------------------

            * * * * * * *   D A T A   M E M O R Y   * * * * * * *
            REG     0000H     0008H     ABSOLUTE     "REG BANK 0"
            DATA    0008H     0003H     UNIT         ?DT?COMMON
                    000BH     0015H                  *** GAP ***
            BIT     0020H.0   0000H.4   UNIT         ?BI?UART
            BIT     0020H.4   0000H.1   UNIT         ?BI?UART2
            BIT     0020H.5   0000H.1   UNIT         ?BI?COMMON
            BIT     0020H.6   0000H.1   UNIT         ?BI?UART3
                    0020H.7   0000H.1                *** GAP ***
            IDATA   0021H     0001H     UNIT         ?STACK

            * * * * * * *  X D A T A   M E M O R Y  * * * * * * *
            XDATA   0000H     0200H     UNIT         ?XD?CRC16
            XDATA   0200H     0199H     UNIT         ?XD?EEPROM_USER
            XDATA   0399H     0125H     UNIT         ?XD?BC3602
            XDATA   04BEH     0117H     UNIT         ?XD?ADC_USER
            XDATA   05D5H     008AH     UNIT         ?XD?_WRITEDATATOONEPAGE?EEPROM
            XDATA   065FH     0037H     UNIT         ?XD?CO2
            XDATA   0696H     002EH     UNIT         ?XD?TIMER0
            XDATA   06C4H     001AH     UNIT         ?XD?SHTC3
            XDATA   06DEH     0014H     UNIT         ?XD?KEY
            XDATA   06F2H     0013H     UNIT         _XDATA_GROUP_
            XDATA   0705H     0009H     UNIT         ?XD?_I2C_OPEN?I2C
            XDATA   070EH     0008H     UNIT         ?XD?_UART2_OPEN?UART2
            XDATA   0716H     0008H     UNIT         ?XD?_UART3_OPEN?UART3
            XDATA   071EH     0008H     UNIT         ?XD?_WRITE_DATAFLASH_ARRAY?EEPROM
            XDATA   0726H     0006H     UNIT         ?XD?_WRITE_DATAFLASH_BYTE?EEPROM
            XDATA   072CH     0005H     UNIT         ?XD?_UART2SENDDATA?UART2_USER
            XDATA   0731H     0004H     UNIT         ?XD?GET_NTCVALU?ADC_USER
            XDATA   0735H     0004H     UNIT         ?XD?LCD_USER
            XDATA   0739H     0002H     UNIT         ?XD?_ADC_INITIALCONTINOUS?ADC
            XDATA   073BH     0002H     UNIT         ?XD?UART
            XDATA   073DH     0001H     UNIT         ?XD?UART2
            XDATA   073EH     0001H     UNIT         ?XD?UART3
            XDATA   073FH     0001H     UNIT         ?XD?LED
            XDATA   0740H     0001H     UNIT         ?XD?_PUTCHAR?UART3_USER

BL51 BANKED LINKER/LOCATER V6.22.2.0                                                  10/31/2022  08:45:44  PAGE 3


            * * * * * * *   C O D E   M E M O R Y   * * * * * * *
            CODE    0000H     0003H     ABSOLUTE     
            CODE    0003H     0008H     UNIT         ?PR?_READ_APROM_BYTE?COMMON
            CODE    000BH     0003H     ABSOLUTE     
            CODE    000EH     0015H     UNIT         ?PR?_UART2_SEND_DATA?UART2
            CODE    0023H     0003H     ABSOLUTE     
            CODE    0026H     0015H     UNIT         ?PR?_SPIWRITEREGCMD?BC3602
            CODE    003BH     0003H     ABSOLUTE     
            CODE    003EH     003DH     UNIT         ?PR?_LCD_CURRENT_MODE?LCD
            CODE    007BH     0003H     ABSOLUTE     
            CODE    007EH     001DH     UNIT         ?PR?UART3_RECEIVE_DATA?UART3
            CODE    009BH     0003H     ABSOLUTE     
            CODE    009EH     0014H     UNIT         ?PR?_UART3_SEND_DATA?UART3
            CODE    00B2H     0001H     UNIT         ?PR?I2C_ERROR?SHTC3
            CODE    00B3H     0003H     ABSOLUTE     
            CODE    00B6H     0AD4H     UNIT         ?PR?GET_TEMPHUT?SHTC3
            CODE    0B8AH     074FH     UNIT         ?C?LIB_CODE
            CODE    12D9H     06B0H     UNIT         ?PR?BAT_POWERDISPLAY?ADC_USER
            CODE    1989H     049CH     UNIT         ?PR?_GET_TEMP_BAT?ADC_USER
            CODE    1E25H     03D6H     UNIT         ?C_INITSEG
            CODE    21FBH     038BH     UNIT         ?PR?_LCD_DISPLAY_TEMPHUB?LCD_USER
            CODE    2586H     0344H     UNIT         ?PR?_GPIO_ENABLEINT?GPIO
            CODE    28CAH     02E7H     UNIT         ?PR?GET_KEYVALUE?KEY
            CODE    2BB1H     02DAH     UNIT         ?PR?_ADC_OPEN?ADC
            CODE    2E8BH     02C2H     UNIT         ?PR?EEPROM_READDATAINIT?EEPROM_USER
            CODE    314DH     02B0H     UNIT         ?PR?_RGB_COLOR?LED
            CODE    33FDH     02A3H     UNIT         ?PR?_WRITEDATATOONEPAGE?EEPROM
            CODE    36A0H     0275H     UNIT         ?PR?_PWM0_CONFIGOUTPUTCHANNEL?PWM0
            CODE    3915H     0223H     UNIT         ?PR?TIME_PROCESS?TIMER0
            CODE    3B38H     0198H     UNIT         ?PR?_PWM123_CLOCKSOURCE?PWM123
            CODE    3CD0H     0193H     UNIT         ?PR?KEYPROCESS?KEY
            CODE    3E63H     018EH     UNIT         ?PR?GET_AVG_VALU_24H?EEPROM_USER
            CODE    3FF1H     0180H     UNIT         ?PR?TIMER0_ISR?TIMER0
            CODE    4171H     017DH     UNIT         ?PR?_UART_OPEN?UART
            CODE    42EEH     017DH     UNIT         ?PR?_EEPROM_WRITE_SENSORDATA?EEPROM_USER
            CODE    446BH     0179H     UNIT         ?PR?_WRITE_DATAFLASH_BYTE?EEPROM
            CODE    45E4H     0148H     UNIT         ?PR?_SHOWDIGIT?LCD_USER
            CODE    472CH     0148H     UNIT         ?PR?BC3602_CONFIG?BC3602
            CODE    4874H     013EH     UNIT         ?PR?_WRITE_DATAFLASH?EEPROM_USER
            CODE    49B2H     0125H     UNIT         ?PR?INIT_LCD?LCD_USER
            CODE    4AD7H     0120H     UNIT         ?PR?_FSYSSELECT?SYS
            CODE    4BF7H     0113H     UNIT         ?PR?_PWM123_CONFIGOUTPUTCHANNEL?PWM123
            CODE    4D0AH     0111H     UNIT         ?PR?_ADC_RUN?ADC_USER
            CODE    4E1BH     00EBH     UNIT         ?PR?_ADC_VREF_SET?ADC
            CODE    4F06H     00E8H     UNIT         ?PR?_SIMPLEFIFO_RX_PROCESS?BC3602
            CODE    4FEEH     00D5H     UNIT         ?PR?_GPIO_SETMODE?GPIO
            CODE    50C3H     00D3H     UNIT         ?PR?LED_INIT?LED
            CODE    5196H     00C1H     UNIT         ?PR?_WRITE_DATAFLASH_ARRAY?EEPROM
            CODE    5257H     00BFH     UNIT         ?PR?_SIMPLEFIFO_TX_PROCESS?BC3602
            CODE    5316H     00BDH     UNIT         ?PR?_CLOCKENABLE?SYS
            CODE    53D3H     00B4H     UNIT         ?PR?_UART3_OPEN?UART3
            CODE    5487H     00B3H     UNIT         ?PR?RFSETDRPRAM?BC3602
            CODE    553AH     00AFH     UNIT         ?PR?LED_BUZ?LED
            CODE    55E9H     00AEH     UNIT         ?PR?_UART2_OPEN?UART2
            CODE    5697H     00ADH     UNIT         ?PR?_DISPLAY_CO2?CO2
            CODE    5744H     00ABH     UNIT         ?PR?UART1_ISR?CO2
            CODE    57EFH     009BH     UNIT         ?PR?_GPIO_PULL_DISABLE?GPIO
BL51 BANKED LINKER/LOCATER V6.22.2.0                                                  10/31/2022  08:45:44  PAGE 4


            CODE    588AH     009AH     UNIT         ?C_C51STARTUP
            CODE    5924H     0096H     UNIT         ?PR?RECIEVE_DATA_ANALYSIS?CO2
            CODE    59BAH     008BH     UNIT         ?PR?_I2C_READ?SHTC3
            CODE    5A45H     0087H     UNIT         ?PR?_GPIO_PULL_ENABLE?GPIO
            CODE    5ACCH     0084H     UNIT         ?PR?_CLOCKDISABLE?SYS
            CODE    5B50H     007DH     UNIT         ?PR?_I2C_READ_PROCESS?SHTC3
            CODE    5BCDH     007CH     UNIT         ?PR?RF_FINISHED_PROCESS?BC3602
            CODE    5C49H     007AH     UNIT         ?PR?_KEY_BC3602?BC3602
            CODE    5CC3H     0078H     UNIT         ?PR?GET_MAX_VALU_24H?EEPROM_USER
            CODE    5D3BH     0077H     UNIT         ?PR?READ_BANDGAP?ADC
            CODE    5DB2H     006EH     UNIT         ?PR?_PWM0_CLOCKSOURCE?PWM0
            CODE    5E20H     006EH     UNIT         ?PR?_PWM1_CLOCKSOURCE?PWM0
            CODE    5E8EH     006DH     UNIT         ?PR?GET_NTCVALU?ADC_USER
            CODE    5EFBH     006AH     UNIT         ?PR?_I2C_OPEN?I2C
            CODE    5F65H     0069H     UNIT         ?PR?RF_INIT?BC3602
            CODE    5FCEH     0068H     UNIT         ?PR?_READ_DATAFLASH_ARRAY?EEPROM
            CODE    6036H     0067H     UNIT         ?PR?ADC_INIT?ADC_USER
            CODE    609DH     0063H     UNIT         ?PR?_ADC_ENABLEHWTRIGGER?ADC
            CODE    6100H     0061H     UNIT         ?PR?_I2C_WRITE?SHTC3
            CODE    6161H     005FH     UNIT         ?PR?_I2C_WRITE_PROCESS?SHTC3
            CODE    61C0H     005CH     UNIT         ?PR?_PWM0_DEADZONEENABLE?PWM0
            CODE    621CH     005CH     UNIT         ?PR?FSYSSWITCHERROR?SYS
            CODE    6278H     0059H     UNIT         ?PR?_CRC8_NRSC5?CRC8_NRSC5
            CODE    62D1H     0058H     UNIT         ?PR?INIT_I2C?SHTC3
            CODE    6329H     0057H     UNIT         ?PR?_I2C_SETSLAVEADDRMASK?I2C
            CODE    6380H     0057H     UNIT         ?PR?GET_CO2_VERSIONNUM?CO2
            CODE    63D7H     0056H     UNIT         ?PR?BC3602_RF_PROCESS?BC3602
            CODE    642DH     0054H     UNIT         ?PR?GET_CO2VALU?CO2
            CODE    6481H     0052H     UNIT         ?PR?_CRC16MODBUS?CRC16
            CODE    64D3H     0051H     UNIT         ?PR?_CLOCKSWITCH?SYS
            CODE    6524H     004FH     UNIT         ?PR?RFWRITEFREQ?BC3602
            CODE    6573H     004FH     UNIT         ?PR?_WRITEFIFO?BC3602
            CODE    65C2H     004FH     UNIT         ?PR?_READFIFO?BC3602
            CODE    6611H     004BH     UNIT         ?PR?_LCD_OPEN?LCD
            CODE    665CH     0048H     UNIT         ?PR?_RFWRITEBUF?BC3602
            CODE    66A4H     0046H     UNIT         ?PR?INIT_UART1?UART1_USER
            CODE    66EAH     0042H     UNIT         ?PR?INIT_UART2?UART2_USER
            CODE    672CH     003FH     UNIT         ?PR?_UART1SENDDATA?UART1_USER
            CODE    676BH     003FH     UNIT         ?PR?_UART2SENDDATA?UART2_USER
            CODE    67AAH     003EH     UNIT         ?PR?WDT_INIT?WDT
            CODE    67E8H     003AH     UNIT         ?PR?INIT_UART3?UART3_USER
            CODE    6822H     0037H     UNIT         ?PR?_LED_FLASH?LED
            CODE    6859H     0036H     UNIT         ?PR?RESETLVRF?BC3602
            CODE    688FH     0035H     UNIT         ?PR?FEED_WDT?WDT
            CODE    68C4H     0035H     UNIT         ?PR?RFWRITESYNCWORD?BC3602
            CODE    68F9H     0035H     UNIT         ?PR?_SPIWRITE?BC3602_SPI
            CODE    692EH     0034H     UNIT         ?PR?SPIREAD?BC3602_SPI
            CODE    6962H     0031H     UNIT         ?PR?ENABLE_UART0_VCOM_PRINTF?UART
            CODE    6993H     002FH     UNIT         ?PR?MAIN?MAIN_C
            CODE    69C2H     002FH     UNIT         ?PR?RFCALIBRATION?BC3602
            CODE    69F1H     002FH     UNIT         ?PR?LIRCCALIBRATION?BC3602
            CODE    6A20H     002FH     UNIT         ?PR?PININTERRUPT_ISR?BC3602
            CODE    6A4FH     002EH     UNIT         ?PR?_ADC_INTERRUPT?ADC
            CODE    6A7DH     002DH     UNIT         ?PR?_ADC_INITIALCONTINOUS?ADC
            CODE    6AAAH     002DH     UNIT         ?PR?_UART_INTERRUPT_ENABLE?UART
            CODE    6AD7H     002DH     UNIT         ?PR?INIT_KEYPORT?KEY
            CODE    6B04H     002BH     UNIT         ?PR?_LCD_INTERRUPT_INITIAL?LCD
BL51 BANKED LINKER/LOCATER V6.22.2.0                                                  10/31/2022  08:45:44  PAGE 5


            CODE    6B2FH     0029H     UNIT         ?PR?_SET_RFSDIO_DIR?BC3602_SPI
            CODE    6B58H     0027H     UNIT         ?PR?_LCD_SETONEPIXEL?LCD
            CODE    6B7FH     0025H     UNIT         ?PR?_GET_CS?CO2
            CODE    6BA4H     0023H     UNIT         ?PR?GET_NTC_TEMP?ADC_USER
            CODE    6BC7H     0021H     UNIT         ?PR?_UART_SEND_DATA?UART
            CODE    6BE8H     0020H     UNIT         ?PR?_LCD_CLOCK_SETTING?LCD
            CODE    6C08H     0020H     UNIT         ?PR?_LCD_SETALLPIXELS?LCD
            CODE    6C28H     0020H     UNIT         ?PR?_LCD_POWERDOWN_DISPLAY?LCD
            CODE    6C48H     0020H     UNIT         ?PR?_RFSETPOWER?BC3602
            CODE    6C68H     001FH     UNIT         ?PR?UART0_ISR?UART
            CODE    6C87H     001EH     UNIT         ?PR?_UART_RECEIVE_DATA?UART
            CODE    6CA5H     001EH     UNIT         ?PR?BC3602_SPI_IOCONFIG?BC3602_SPI
            CODE    6CC3H     001CH     UNIT         ?PR?SMC1_ISR?UART3
            CODE    6CDFH     001CH     UNIT         ?PR?TIMER0_INIT?TIMER0
            CODE    6CFBH     001BH     UNIT         ?PR?_ADC_SAMPLINGTIME?ADC
            CODE    6D16H     001AH     UNIT         ?PR?SMC0_ISR?UART2
            CODE    6D30H     0019H     UNIT         ?PR?_DATA_PROCESS?BC3602
            CODE    6D49H     0018H     UNIT         ?PR?_I2C_ENABLEINT?I2C
            CODE    6D61H     0018H     UNIT         ?PR?_I2C_DISABLEINT?I2C
            CODE    6D79H     0017H     UNIT         ?PR?SW_RESET?SYS
            CODE    6D90H     0016H     UNIT         ?PR?RFGETCLRRFIRQ?BC3602
            CODE    6DA6H     0013H     UNIT         ?PR?_I2C_GETSTATUS?I2C
            CODE    6DB9H     0013H     UNIT         ?PR?_I2C_SLAVE_ADDRESS_MASK_DISABLE?I2C
            CODE    6DCCH     0012H     UNIT         ?PR?_I2C_CLOSE?I2C
            CODE    6DDEH     0012H     UNIT         ?PR?_I2C_ENABLETIMEOUT?I2C
            CODE    6DF0H     0012H     UNIT         ?PR?_I2C_DISABLETIMEOUT?I2C
            CODE    6E02H     0012H     UNIT         ?PR?_I2C_CLEARTIMEOUTFLAG?I2C
            CODE    6E14H     0011H     UNIT         ?PR?UART2_RECEIVE_ONE_BYTE?UART2
            CODE    6E25H     0011H     UNIT         ?PR?_I2C_SLAVE_ADDRESS_MASK_ENABLE?I2C
            CODE    6E36H     0011H     UNIT         ?PR?PWM0_DEADZONE_ALL_DISABLE?PWM0
            CODE    6E47H     0011H     UNIT         ?PR?RFXTALREADY?BC3602
            CODE    6E58H     000FH     UNIT         ?PR?_LCD_BLINK?LCD
            CODE    6E67H     000EH     UNIT         ?PR?_PUTCHAR?UART3_USER
            CODE    6E75H     000DH     UNIT         ?PR?GET_MAX_VALU_CO2_24H?EEPROM_USER
            CODE    6E82H     000DH     UNIT         ?PR?GET_AVG_VALU_CO2_24H?EEPROM_USER
            CODE    6E8FH     000CH     UNIT         ?PR?INIT_WIFI?WIFI
            CODE    6E9BH     000BH     UNIT         ?PR?_SPIREADREGCMD?BC3602
            CODE    6EA6H     000AH     UNIT         ?PR?LCD_ENABLE?LCD
            CODE    6EB0H     0009H     UNIT         ?PR?GET_NTC_INIT?ADC_USER
            CODE    6EB9H     0009H     UNIT         ?PR?GET_CO2VALUE?CO2
            CODE    6EC2H     0009H     UNIT         ?PR?GET_TEMPVALUE?SHTC3
            CODE    6ECBH     0009H     UNIT         ?PR?GET_TEMPVALUEMID?SHTC3
            CODE    6ED4H     0009H     UNIT         ?PR?GET_TEMPVALUEINIT?SHTC3
            CODE    6EDDH     0009H     UNIT         ?PR?GET_HUB_VALUE_MID?SHTC3
            CODE    6EE6H     0009H     UNIT         ?PR?GET_HUB_VALUE_INTI?SHTC3
            CODE    6EEFH     0009H     UNIT         ?PR?GET_NTCTEMP?TIMER0
            CODE    6EF8H     0008H     UNIT         ?PR?_SPIWRITESTROBECMD?BC3602
            CODE    6F00H     0007H     UNIT         ?PR?ADC_CLOSE?ADC
            CODE    6F07H     0007H     UNIT         ?PR?ADC_DISABLEHWTRIGGER?ADC
            CODE    6F0EH     0007H     UNIT         ?PR?PWM0_RUN?PWM0
            CODE    6F15H     0007H     UNIT         ?PR?PWM0_STOP?PWM0
            CODE    6F1CH     0007H     UNIT         ?PR?LCD_DISABLE?LCD
            CODE    6F23H     0006H     UNIT         ?PR?GET_LIGHT_STA?KEY
            CODE    6F29H     0006H     UNIT         ?PR?GET_BELL_STA?KEY
            CODE    6F2FH     0006H     UNIT         ?PR?GET_UNIT_STA?KEY
            CODE    6F35H     0006H     UNIT         ?PR?GET_COLOR_STA?KEY
            CODE    6F3BH     0006H     UNIT         ?PR?GET_CO2DISMOD?KEY
BL51 BANKED LINKER/LOCATER V6.22.2.0                                                  10/31/2022  08:45:44  PAGE 6


            CODE    6F41H     0006H     UNIT         ?PR?GET_WIFI_KEY_STA?KEY
            CODE    6F47H     0006H     UNIT         ?PR?LCD_DISPLAY?LCD_USER
            CODE    6F4DH     0006H     UNIT         ?PR?INIT_SHTC3?SHTC3
            CODE    6F53H     0006H     UNIT         ?PR?GET_TEMPHUTSTARTFLAG?TIMER0
            CODE    6F59H     0006H     UNIT         ?PR?CLR__TEMPHUTSTARTFLAG?TIMER0
            CODE    6F5FH     0006H     UNIT         ?PR?GET_SAVEADDR?TIMER0
            CODE    6F65H     0006H     UNIT         ?PR?GET_ONECIRCLESAVEFLAG?TIMER0
            CODE    6F6BH     0006H     UNIT         ?PR?_SET_ONECIRCLE_FLAG?TIMER0
            CODE    6F71H     0006H     UNIT         ?PR?_SET_SAVE_ADDRP?TIMER0
            CODE    6F77H     0006H     UNIT         ?PR?GET_RF_MODE?BC3602



OVERLAY MAP OF MODULE:   .\Output\Temp_Humi_CO2 (MAIN_C)


SEGMENT                                            XDATA_GROUP
  +--> CALLED SEGMENT                            START    LENGTH
----------------------------------------------------------------
?C_C51STARTUP                                    -----    -----
  +--> ?PR?MAIN?MAIN_C
  +--> ?C_INITSEG

?PR?MAIN?MAIN_C                                  -----    -----
  +--> ?PR?_FSYSSELECT?SYS
  +--> ?PR?INIT_UART1?UART1_USER
  +--> ?PR?TIMER0_INIT?TIMER0
  +--> ?PR?LED_INIT?LED
  +--> ?PR?INIT_LCD?LCD_USER
  +--> ?PR?WDT_INIT?WDT
  +--> ?PR?INIT_I2C?SHTC3
  +--> ?PR?ADC_INIT?ADC_USER
  +--> ?PR?INIT_KEYPORT?KEY
  +--> ?PR?EEPROM_READDATAINIT?EEPROM_USER
  +--> ?PR?RF_INIT?BC3602
  +--> ?PR?FEED_WDT?WDT
  +--> ?PR?TIME_PROCESS?TIMER0
  +--> ?PR?BC3602_RF_PROCESS?BC3602

?PR?_FSYSSELECT?SYS                              -----    -----
  +--> ?PR?_CLOCKENABLE?SYS
  +--> ?PR?_CLOCKSWITCH?SYS
  +--> ?PR?FSYSSWITCHERROR?SYS

?PR?INIT_UART1?UART1_USER                        -----    -----
  +--> ?PR?_UART_OPEN?UART

?PR?_UART_OPEN?UART                              06F2H    0009H

?PR?LED_INIT?LED                                 -----    -----
  +--> ?PR?_GPIO_SETMODE?GPIO
  +--> ?PR?_PWM123_CLOCKSOURCE?PWM123
  +--> ?PR?_PWM123_CONFIGOUTPUTCHANNEL?PWM123
  +--> ?PR?_PWM0_CLOCKSOURCE?PWM0
  +--> ?PR?_PWM0_CONFIGOUTPUTCHANNEL?PWM0
  +--> ?PR?PWM0_RUN?PWM0

BL51 BANKED LINKER/LOCATER V6.22.2.0                                                  10/31/2022  08:45:44  PAGE 7


?PR?_GPIO_SETMODE?GPIO                           0702H    0001H

?PR?_PWM123_CLOCKSOURCE?PWM123                   06F2H    0001H

?PR?_PWM123_CONFIGOUTPUTCHANNEL?PWM123           06F2H    0006H

?PR?_PWM0_CONFIGOUTPUTCHANNEL?PWM0               06F3H    0009H

?PR?INIT_LCD?LCD_USER                            -----    -----
  +--> ?PR?_LCD_CLOCK_SETTING?LCD
  +--> ?PR?_LCD_OPEN?LCD
  +--> ?PR?_LCD_CURRENT_MODE?LCD
  +--> ?PR?LCD_ENABLE?LCD
  +--> ?PR?_LCD_SETALLPIXELS?LCD

?PR?_LCD_OPEN?LCD                                06F2H    0005H
  +--> ?PR?LCD_DISABLE?LCD
  +--> ?PR?_LCD_SETALLPIXELS?LCD

?PR?INIT_I2C?SHTC3                               -----    -----
  +--> ?PR?_I2C_WRITE?SHTC3

?PR?_I2C_WRITE?SHTC3                             -----    -----
  +--> ?PR?I2C_ERROR?SHTC3

?PR?ADC_INIT?ADC_USER                            -----    -----
  +--> ?PR?_ADC_OPEN?ADC
  +--> ?PR?_ADC_SAMPLINGTIME?ADC
  +--> ?PR?_ADC_VREF_SET?ADC
  +--> ?PR?_GPIO_SETMODE?GPIO

?PR?EEPROM_READDATAINIT?EEPROM_USER              06F2H    0005H
  +--> ?PR?_READ_DATAFLASH_ARRAY?EEPROM
  +--> ?PR?_CRC8_NRSC5?CRC8_NRSC5
  +--> ?PR?_CRC16MODBUS?CRC16
  +--> ?PR?_SET_ONECIRCLE_FLAG?TIMER0
  +--> ?PR?_SET_SAVE_ADDRP?TIMER0

?PR?_READ_DATAFLASH_ARRAY?EEPROM                 06F7H    0009H

?PR?_CRC8_NRSC5?CRC8_NRSC5                       06F7H    0005H

?PR?_CRC16MODBUS?CRC16                           06F7H    0004H

?PR?RF_INIT?BC3602                               -----    -----
  +--> ?PR?BC3602_SPI_IOCONFIG?BC3602_SPI
  +--> ?PR?_SPIWRITESTROBECMD?BC3602
  +--> ?PR?RESETLVRF?BC3602
  +--> ?PR?_GPIO_SETMODE?GPIO
  +--> ?PR?_GPIO_PULL_ENABLE?GPIO
  +--> ?PR?_GPIO_ENABLEINT?GPIO
  +--> ?PR?BC3602_CONFIG?BC3602
  +--> ?PR?RFWRITESYNCWORD?BC3602
  +--> ?PR?RFWRITEFREQ?BC3602
  +--> ?PR?RFSETDRPRAM?BC3602
  +--> ?PR?_RFSETPOWER?BC3602
  +--> ?PR?RFXTALREADY?BC3602
BL51 BANKED LINKER/LOCATER V6.22.2.0                                                  10/31/2022  08:45:44  PAGE 8


  +--> ?PR?RFCALIBRATION?BC3602
  +--> ?PR?LIRCCALIBRATION?BC3602
  +--> ?PR?RFGETCLRRFIRQ?BC3602

?PR?BC3602_SPI_IOCONFIG?BC3602_SPI               -----    -----
  +--> ?PR?_GPIO_SETMODE?GPIO
  +--> ?PR?_SET_RFSDIO_DIR?BC3602_SPI

?PR?_SET_RFSDIO_DIR?BC3602_SPI                   0701H    0001H
  +--> ?PR?_GPIO_SETMODE?GPIO
  +--> ?PR?_GPIO_PULL_ENABLE?GPIO

?PR?_SPIWRITESTROBECMD?BC3602                    -----    -----
  +--> ?PR?_SPIWRITE?BC3602_SPI

?PR?_SPIWRITE?BC3602_SPI                         0700H    0001H
  +--> ?PR?_SET_RFSDIO_DIR?BC3602_SPI

?PR?RESETLVRF?BC3602                             06F2H    0001H
  +--> ?PR?_SPIREADREGCMD?BC3602
  +--> ?PR?_SPIWRITEREGCMD?BC3602

?PR?_SPIREADREGCMD?BC3602                        -----    -----
  +--> ?PR?_SPIWRITE?BC3602_SPI
  +--> ?PR?SPIREAD?BC3602_SPI

?PR?SPIREAD?BC3602_SPI                           0700H    0001H
  +--> ?PR?_SET_RFSDIO_DIR?BC3602_SPI

?PR?_SPIWRITEREGCMD?BC3602                       06FCH    0001H
  +--> ?PR?_SPIWRITE?BC3602_SPI

?PR?_GPIO_ENABLEINT?GPIO                         06F2H    0005H

?PR?BC3602_CONFIG?BC3602                         06F2H    0001H
  +--> ?PR?_SPIWRITEREGCMD?BC3602
  +--> ?PR?_SPIWRITESTROBECMD?BC3602

?PR?RFWRITESYNCWORD?BC3602                       -----    -----
  +--> ?PR?_RFWRITEBUF?BC3602

?PR?_RFWRITEBUF?BC3602                           06F2H    0005H
  +--> ?PR?_SPIWRITE?BC3602_SPI

?PR?RFWRITEFREQ?BC3602                           06F2H    0001H
  +--> ?PR?_SPIREADREGCMD?BC3602
  +--> ?PR?_SPIWRITEREGCMD?BC3602

?PR?RFSETDRPRAM?BC3602                           06F2H    0001H
  +--> ?PR?_SPIWRITESTROBECMD?BC3602
  +--> ?PR?_SPIWRITEREGCMD?BC3602

?PR?_RFSETPOWER?BC3602                           -----    -----
  +--> ?PR?_SPIWRITEREGCMD?BC3602

?PR?RFXTALREADY?BC3602                           -----    -----
  +--> ?PR?_SPIREADREGCMD?BC3602
BL51 BANKED LINKER/LOCATER V6.22.2.0                                                  10/31/2022  08:45:44  PAGE 9



?PR?RFCALIBRATION?BC3602                         06F2H    0001H
  +--> ?PR?_SPIREADREGCMD?BC3602
  +--> ?PR?_SPIWRITEREGCMD?BC3602

?PR?LIRCCALIBRATION?BC3602                       06F2H    0001H
  +--> ?PR?_SPIREADREGCMD?BC3602
  +--> ?PR?_SPIWRITEREGCMD?BC3602

?PR?RFGETCLRRFIRQ?BC3602                         06FBH    0001H
  +--> ?PR?_SPIREADREGCMD?BC3602
  +--> ?PR?_SPIWRITEREGCMD?BC3602

?PR?TIME_PROCESS?TIMER0                          -----    -----
  +--> ?PR?GET_TEMPHUT?SHTC3
  +--> ?PR?RECIEVE_DATA_ANALYSIS?CO2
  +--> ?PR?KEYPROCESS?KEY
  +--> ?PR?GET_COLOR_STA?KEY
  +--> ?PR?_RGB_COLOR?LED
  +--> ?PR?_GET_TEMP_BAT?ADC_USER
  +--> ?PR?_EEPROM_WRITE_SENSORDATA?EEPROM_USER
  +--> ?PR?GET_MAX_VALU_24H?EEPROM_USER
  +--> ?PR?GET_AVG_VALU_24H?EEPROM_USER
  +--> ?PR?GET_NTC_TEMP?ADC_USER
  +--> ?PR?GET_TEMPVALUEINIT?SHTC3
  +--> ?PR?GET_TEMPVALUEMID?SHTC3
  +--> ?PR?GET_HUB_VALUE_MID?SHTC3
  +--> ?PR?GET_HUB_VALUE_INTI?SHTC3
  +--> ?PR?GET_CO2VALU?CO2

?PR?GET_TEMPHUT?SHTC3                            06F2H    0001H
  +--> ?PR?_I2C_WRITE?SHTC3
  +--> ?PR?_I2C_READ?SHTC3
  +--> ?PR?_CRC8_NRSC5?CRC8_NRSC5
  +--> ?PR?_LCD_DISPLAY_TEMPHUB?LCD_USER
  +--> ?PR?CLR__TEMPHUTSTARTFLAG?TIMER0

?PR?_I2C_READ?SHTC3                              06F3H    0001H
  +--> ?PR?I2C_ERROR?SHTC3

?PR?_LCD_DISPLAY_TEMPHUB?LCD_USER                06F3H    000BH
  +--> ?PR?_LCD_SETALLPIXELS?LCD
  +--> ?PR?GET_UNIT_STA?KEY
  +--> ?PR?_LCD_SETONEPIXEL?LCD
  +--> ?PR?_SHOWDIGIT?LCD_USER
  +--> ?PR?GET_CO2DISMOD?KEY
  +--> ?PR?_DISPLAY_CO2?CO2
  +--> ?PR?GET_LIGHT_STA?KEY
  +--> ?PR?GET_BELL_STA?KEY
  +--> ?PR?BAT_POWERDISPLAY?ADC_USER

?PR?_SHOWDIGIT?LCD_USER                          0704H    0001H

?PR?_DISPLAY_CO2?CO2                             06FEH    0006H
  +--> ?PR?_SHOWDIGIT?LCD_USER

?PR?BAT_POWERDISPLAY?ADC_USER                    -----    -----
BL51 BANKED LINKER/LOCATER V6.22.2.0                                                  10/31/2022  08:45:44  PAGE 10


  +--> ?PR?_LCD_SETONEPIXEL?LCD

?PR?RECIEVE_DATA_ANALYSIS?CO2                    -----    -----
  +--> ?PR?_GET_CS?CO2

?PR?KEYPROCESS?KEY                               -----    -----
  +--> ?PR?GET_KEYVALUE?KEY
  +--> ?PR?GET_RF_MODE?BC3602
  +--> ?PR?_KEY_BC3602?BC3602

?PR?_KEY_BC3602?BC3602                           -----    -----
  +--> ?PR?_DATA_PROCESS?BC3602

?PR?_RGB_COLOR?LED                               06F2H    0001H
  +--> ?PR?PWM0_STOP?PWM0
  +--> ?PR?_PWM0_CONFIGOUTPUTCHANNEL?PWM0
  +--> ?PR?PWM0_RUN?PWM0

?PR?_GET_TEMP_BAT?ADC_USER                       06F2H    0002H
  +--> ?PR?_ADC_RUN?ADC_USER

?PR?_ADC_RUN?ADC_USER                            06F4H    0004H

?PR?_EEPROM_WRITE_SENSORDATA?EEPROM_USER         06F2H    0003H
  +--> ?PR?_CRC8_NRSC5?CRC8_NRSC5
  +--> ?PR?_WRITE_DATAFLASH?EEPROM_USER
  +--> ?PR?_READ_DATAFLASH_ARRAY?EEPROM
  +--> ?PR?GET_CO2VALUE?CO2
  +--> ?PR?GET_SAVEADDR?TIMER0
  +--> ?PR?GET_ONECIRCLESAVEFLAG?TIMER0
  +--> ?PR?_CRC16MODBUS?CRC16

?PR?_WRITE_DATAFLASH?EEPROM_USER                 06F5H    0008H

?PR?GET_MAX_VALU_24H?EEPROM_USER                 06F2H    0004H

?PR?GET_AVG_VALU_24H?EEPROM_USER                 06F2H    0009H

?PR?GET_CO2VALU?CO2                              -----    -----
  +--> ?PR?_UART1SENDDATA?UART1_USER

?PR?_UART1SENDDATA?UART1_USER                    06F2H    0005H
  +--> ?PR?_UART_SEND_DATA?UART

?PR?BC3602_RF_PROCESS?BC3602                     -----    -----
  +--> ?PR?_SIMPLEFIFO_TX_PROCESS?BC3602
  +--> ?PR?_SIMPLEFIFO_RX_PROCESS?BC3602
  +--> ?PR?RF_FINISHED_PROCESS?BC3602

?PR?_SIMPLEFIFO_TX_PROCESS?BC3602                06F2H    0009H
  +--> ?PR?_SPIWRITESTROBECMD?BC3602
  +--> ?PR?RFXTALREADY?BC3602
  +--> ?PR?_SPIWRITEREGCMD?BC3602
  +--> ?PR?_WRITEFIFO?BC3602
  +--> ?PR?RFGETCLRRFIRQ?BC3602

?PR?_WRITEFIFO?BC3602                            06FBH    0005H
BL51 BANKED LINKER/LOCATER V6.22.2.0                                                  10/31/2022  08:45:44  PAGE 11


  +--> ?PR?_SPIWRITE?BC3602_SPI

?PR?_SIMPLEFIFO_RX_PROCESS?BC3602                06F2H    0009H
  +--> ?PR?_SPIWRITESTROBECMD?BC3602
  +--> ?PR?RFXTALREADY?BC3602
  +--> ?PR?_SPIWRITEREGCMD?BC3602
  +--> ?PR?RFGETCLRRFIRQ?BC3602
  +--> ?PR?_READFIFO?BC3602

?PR?_READFIFO?BC3602                             06FBH    0005H
  +--> ?PR?_SPIWRITE?BC3602_SPI
  +--> ?PR?SPIREAD?BC3602_SPI

?PR?RF_FINISHED_PROCESS?BC3602                   -----    -----
  +--> ?PR?_LED_FLASH?LED



SYMBOL TABLE OF MODULE:  .\Output\Temp_Humi_CO2 (MAIN_C)

  VALUE           TYPE          NAME
  ----------------------------------

  -------         MODULE        MAIN_C
  C:0000H         SYMBOL        _ICE_DUMMY_
  D:0080H         PUBLIC        P0
  D:0090H         PUBLIC        P1
  D:00A0H         PUBLIC        P2
  D:00B0H         PUBLIC        P3
  D:00D8H         PUBLIC        P4
  D:00A8H         PUBLIC        IE
  D:00B8H         PUBLIC        IP
  C:6993H         PUBLIC        main
  D:0098H         PUBLIC        SCON
  D:0088H         PUBLIC        TCON
  D:00C0H         PUBLIC        I2C0CON
  D:00E8H         PUBLIC        I2C1CON
  D:00F8H         PUBLIC        S1CON
  D:00C8H         PUBLIC        T2CON
  D:00D0H         PUBLIC        PSW
  -------         PROC          MAIN
  C:6993H         LINE#         7
  C:6993H         LINE#         8
  C:6993H         LINE#         9
  C:6998H         LINE#         10
  C:699BH         LINE#         13
  C:699EH         LINE#         14
  C:69A1H         LINE#         15
  C:69A4H         LINE#         16
  C:69A7H         LINE#         17
  C:69AAH         LINE#         18
  C:69ADH         LINE#         19
  C:69B0H         LINE#         20
  C:69B3H         LINE#         22
  C:69B6H         LINE#         24
  C:69B6H         LINE#         25
  C:69B6H         LINE#         26
BL51 BANKED LINKER/LOCATER V6.22.2.0                                                  10/31/2022  08:45:44  PAGE 12


  C:69B9H         LINE#         27
  C:69BCH         LINE#         28
  C:69BFH         LINE#         30
  -------         ENDPROC       MAIN
  -------         ENDMOD        MAIN_C

  -------         MODULE        UART2
  C:0000H         SYMBOL        _ICE_DUMMY_
  D:00DCH         PUBLIC        SC0ETURD1
  D:0080H         PUBLIC        P0
  D:0090H         PUBLIC        P1
  D:00A0H         PUBLIC        P2
  D:00B0H         PUBLIC        P3
  D:00D8H         PUBLIC        P4
  D:00D6H         PUBLIC        SC0CR0
  D:00D7H         PUBLIC        SC0CR1
  D:00A8H         PUBLIC        IE
  C:6E14H         PUBLIC        UART2_Receive_One_Byte
  D:00B8H         PUBLIC        IP
  D:0098H         PUBLIC        SCON
  D:0088H         PUBLIC        TCON
  C:000EH         PUBLIC        _UART2_Send_Data
  D:0091H         PUBLIC        SFRS
  D:00DFH         PUBLIC        SC0TSR
  D:00C0H         PUBLIC        I2C0CON
  D:00E8H         PUBLIC        I2C1CON
  X:073DH         PUBLIC        uart2rvbuffer
  D:00D9H         PUBLIC        SC0DR
  C:6D16H         PUBLIC        SMC0_ISR
  C:55E9H         PUBLIC        _UART2_Open
  D:00F8H         PUBLIC        S1CON
  D:00C8H         PUBLIC        T2CON
  B:0020H.4       PUBLIC        uart2rvflag
  D:00D0H         PUBLIC        PSW
  D:00DBH         PUBLIC        SC0ETURD0
  -------         PROC          SMC0_ISR
  C:6D16H         LINE#         20
  C:6D1CH         LINE#         22
  C:6D1EH         LINE#         24
  C:6D21H         LINE#         25
  C:6D27H         LINE#         26
  C:6D29H         LINE#         27
  -------         ENDPROC       SMC0_ISR
  -------         PROC          _UART2_OPEN
  X:070EH         SYMBOL        u32SysClock
  X:0712H         SYMBOL        u32Baudrate
  C:55E9H         LINE#         36
  C:55EFH         LINE#         37
  C:55EFH         LINE#         38
  C:55F5H         LINE#         39
  C:55FAH         LINE#         40
  C:55FFH         LINE#         41
  C:5604H         LINE#         42
  C:5609H         LINE#         44
  C:5644H         LINE#         45
  C:5647H         LINE#         46
  C:5688H         LINE#         47
BL51 BANKED LINKER/LOCATER V6.22.2.0                                                  10/31/2022  08:45:44  PAGE 13


  C:568EH         LINE#         48
  C:5691H         LINE#         49
  C:5696H         LINE#         50
  -------         ENDPROC       _UART2_OPEN
  -------         PROC          UART2_RECEIVE_ONE_BYTE
  -------         DO            
  D:0007H         SYMBOL        c
  -------         ENDDO         
  C:6E14H         LINE#         59
  C:6E14H         LINE#         60
  C:6E14H         LINE#         62
  C:6E1AH         LINE#         63
  C:6E22H         LINE#         64
  C:6E24H         LINE#         65
  C:6E24H         LINE#         66
  -------         ENDPROC       UART2_RECEIVE_ONE_BYTE
  -------         PROC          _UART2_SEND_DATA
  D:0007H         SYMBOL        c
  C:000EH         LINE#         75
  C:000EH         LINE#         76
  C:000EH         LINE#         77
  C:0014H         LINE#         78
  C:0016H         LINE#         79
  C:001CH         LINE#         80
  C:0022H         LINE#         81
  -------         ENDPROC       _UART2_SEND_DATA
  -------         ENDMOD        UART2

  -------         MODULE        COMMON
  C:0000H         SYMBOL        _ICE_DUMMY_
  D:0080H         PUBLIC        P0
  D:0090H         PUBLIC        P1
  D:00A0H         PUBLIC        P2
  D:00B0H         PUBLIC        P3
  D:00D8H         PUBLIC        P4
  D:0008H         PUBLIC        BYTE_TMP
  D:00A8H         PUBLIC        IE
  D:0009H         PUBLIC        SFRS_TMP
  D:00B8H         PUBLIC        IP
  D:000AH         PUBLIC        TA_REG_TMP
  B:0020H.5       PUBLIC        BIT_TMP
  D:0098H         PUBLIC        SCON
  D:0088H         PUBLIC        TCON
  D:00C0H         PUBLIC        I2C0CON
  D:00E8H         PUBLIC        I2C1CON
  D:00F8H         PUBLIC        S1CON
  D:00C8H         PUBLIC        T2CON
  C:0003H         PUBLIC        _Read_APROM_BYTE
  D:00D0H         PUBLIC        PSW
  -------         PROC          _READ_APROM_BYTE
  D:0082H         SYMBOL        u16_addr
  -------         DO            
  D:0007H         SYMBOL        rdata
  -------         ENDDO         
  C:0003H         LINE#         17
  C:0007H         LINE#         18
  C:0007H         LINE#         20
BL51 BANKED LINKER/LOCATER V6.22.2.0                                                  10/31/2022  08:45:44  PAGE 14


  C:000AH         LINE#         21
  C:000AH         LINE#         22
  -------         ENDPROC       _READ_APROM_BYTE
  -------         ENDMOD        COMMON

  -------         MODULE        ADC
  C:0000H         SYMBOL        _ICE_DUMMY_
  D:00F4H         PUBLIC        P2MF54
  D:0080H         PUBLIC        P0
  D:00B5H         PUBLIC        P2M1
  D:0090H         PUBLIC        P1
  D:00C2H         PUBLIC        P3M1
  D:00B6H         PUBLIC        P2M2
  D:00A0H         PUBLIC        P2
  D:00C3H         PUBLIC        P3M2
  D:00B0H         PUBLIC        P3
  D:00F5H         PUBLIC        P2MF76
  D:0094H         PUBLIC        P6MF54
  D:00D8H         PUBLIC        P4
  D:0084H         PUBLIC        P6M1
  B:00A8H.7       PUBLIC        EA
  D:0085H         PUBLIC        P6M2
  D:0095H         PUBLIC        P6MF76
  D:00A8H         PUBLIC        IE
  D:00E4H         PUBLIC        ADCBAH
  D:00C7H         PUBLIC        TA
  D:00CBH         PUBLIC        ADCBAL
  D:00B8H         PUBLIC        IP
  C:6F00H         PUBLIC        ADC_Close
  D:00CEH         PUBLIC        AINDIDS0
  D:00CEH         PUBLIC        AINDIDS1
  D:00E3H         PUBLIC        ADCDLY
  D:0098H         PUBLIC        SCON
  D:0088H         PUBLIC        TCON
  D:009FH         PUBLIC        CHPCON
  C:2BB1H         PUBLIC        _ADC_Open
  D:0091H         PUBLIC        SFRS
  C:6A7DH         PUBLIC        _ADC_InitialContinous
  D:00A4H         PUBLIC        IAPTRG
  C:4E1BH         PUBLIC        _ADC_Vref_Set
  D:00A9H         PUBLIC        VRFCON
  D:00C0H         PUBLIC        I2C0CON
  D:00E8H         PUBLIC        I2C1CON
  D:00A1H         PUBLIC        ADCCON0
  D:00E1H         PUBLIC        ADCCON1
  C:6F07H         PUBLIC        ADC_DisableHWTrigger
  D:00E2H         PUBLIC        ADCCON2
  D:00A7H         PUBLIC        IAPAH
  D:00F8H         PUBLIC        S1CON
  D:00AEH         PUBLIC        IAPFD
  D:00C8H         PUBLIC        T2CON
  D:00A6H         PUBLIC        IAPAL
  D:00E5H         PUBLIC        ADCSN
  D:00AFH         PUBLIC        IAPCN
  C:5D3BH         PUBLIC        READ_BANDGAP
  C:609DH         PUBLIC        _ADC_EnableHWTrigger
  D:00E7H         PUBLIC        ADCSR
BL51 BANKED LINKER/LOCATER V6.22.2.0                                                  10/31/2022  08:45:44  PAGE 15


  D:00F2H         PUBLIC        P2MF10
  D:00F6H         PUBLIC        P3MF10
  D:00D0H         PUBLIC        PSW
  D:00F3H         PUBLIC        P2MF32
  C:6CFBH         PUBLIC        _ADC_SamplingTime
  D:00F7H         PUBLIC        P3MF32
  C:6A4FH         PUBLIC        _ADC_Interrupt
  -------         PROC          _ADC_OPEN
  D:0006H         SYMBOL        u8ADCOpMode
  D:0005H         SYMBOL        u8ADCChMask
  C:2BB1H         LINE#         29
  C:2BB1H         LINE#         30
  C:2BB1H         LINE#         31
  C:2BBCH         LINE#         32
  C:2BBCH         LINE#         33
  C:2BC4H         LINE#         34
  C:2BCAH         LINE#         35
  C:2BCAH         LINE#         36
  C:2BCAH         LINE#         38
  C:2C0DH         LINE#         39
  C:2C0DH         LINE#         40
  C:2C33H         LINE#         41
  C:2C5CH         LINE#         42
  C:2C85H         LINE#         43
  C:2CAEH         LINE#         44
  C:2CD7H         LINE#         45
  C:2D00H         LINE#         46
  C:2D29H         LINE#         47
  C:2D52H         LINE#         48
  C:2D7DH         LINE#         49
  C:2DA8H         LINE#         50
  C:2DD3H         LINE#         51
  C:2DFEH         LINE#         52
  C:2E28H         LINE#         53
  C:2E52H         LINE#         54
  C:2E6AH         LINE#         55
  C:2E78H         LINE#         56
  C:2E84H         LINE#         57
  C:2E84H         LINE#         58
  C:2E84H         LINE#         59
  C:2E8AH         LINE#         61
  -------         ENDPROC       _ADC_OPEN
  -------         PROC          ADC_CLOSE
  C:6F00H         LINE#         68
  C:6F00H         LINE#         69
  C:6F00H         LINE#         70
  C:6F06H         LINE#         71
  -------         ENDPROC       ADC_CLOSE
  -------         PROC          _ADC_INITIALCONTINOUS
  X:0739H         SYMBOL        u16ADCRBase
  D:0005H         SYMBOL        u8ADCRLength
  D:0003H         SYMBOL        u8ADCSpeed
  C:6A7DH         LINE#         84
  C:6A85H         LINE#         85
  C:6A85H         LINE#         86
  C:6A88H         LINE#         87
  C:6A8BH         LINE#         88
BL51 BANKED LINKER/LOCATER V6.22.2.0                                                  10/31/2022  08:45:44  PAGE 16


  C:6A91H         LINE#         89
  C:6A95H         LINE#         90
  C:6A9CH         LINE#         91
  C:6A9CH         LINE#         92
  C:6AA3H         LINE#         93
  C:6AA9H         LINE#         94
  C:6AA9H         LINE#         95
  C:6AA9H         LINE#         96
  -------         ENDPROC       _ADC_INITIALCONTINOUS
  -------         PROC          _ADC_SAMPLINGTIME
  D:0007H         SYMBOL        u8ADCDIV
  D:0005H         SYMBOL        u8ADCAQT
  C:6CFBH         LINE#         107
  C:6CFBH         LINE#         108
  C:6CFBH         LINE#         109
  C:6CFEH         LINE#         110
  C:6D01H         LINE#         111
  C:6D0AH         LINE#         112
  C:6D0DH         LINE#         113
  C:6D15H         LINE#         114
  -------         ENDPROC       _ADC_SAMPLINGTIME
  -------         PROC          _ADC_ENABLEHWTRIGGER
  D:0007H         SYMBOL        u8ADCSHWTource
  D:0005H         SYMBOL        u8ADCHWTParam
  D:0003H         SYMBOL        u8ADCHWTDelay
  C:609DH         LINE#         138
  C:609DH         LINE#         139
  C:609DH         LINE#         140
  C:60A0H         LINE#         141
  C:60AEH         LINE#         142
  C:60AEH         LINE#         143
  C:60B3H         LINE#         144
  C:60BBH         LINE#         145
  C:60C3H         LINE#         146
  C:60C9H         LINE#         147
  C:60C9H         LINE#         148
  C:60C9H         LINE#         149
  C:60D7H         LINE#         150
  C:60D7H         LINE#         151
  C:60DCH         LINE#         152
  C:60E4H         LINE#         153
  C:60ECH         LINE#         154
  C:60F2H         LINE#         155
  C:60F2H         LINE#         156
  C:60F2H         LINE#         157
  C:60F6H         LINE#         158
  C:60FCH         LINE#         159
  C:60FFH         LINE#         160
  -------         ENDPROC       _ADC_ENABLEHWTRIGGER
  -------         PROC          ADC_DISABLEHWTRIGGER
  C:6F07H         LINE#         162
  C:6F07H         LINE#         163
  C:6F07H         LINE#         164
  C:6F0DH         LINE#         165
  -------         ENDPROC       ADC_DISABLEHWTRIGGER
  -------         PROC          _ADC_INTERRUPT
  D:0007H         SYMBOL        u8ADCINT
BL51 BANKED LINKER/LOCATER V6.22.2.0                                                  10/31/2022  08:45:44  PAGE 17


  D:0005H         SYMBOL        u8ADCIntSource
  C:6A4FH         LINE#         182
  C:6A4FH         LINE#         183
  C:6A4FH         LINE#         184
  C:6A52H         LINE#         185
  C:6A59H         LINE#         186
  C:6A59H         LINE#         187
  C:6A59H         LINE#         188
  C:6A5CH         LINE#         189
  C:6A5DH         LINE#         191
  C:6A5DH         LINE#         192
  C:6A69H         LINE#         193
  C:6A69H         LINE#         194
  C:6A6EH         LINE#         195
  C:6A76H         LINE#         196
  C:6A79H         LINE#         197
  C:6A79H         LINE#         198
  C:6A79H         LINE#         199
  C:6A7CH         LINE#         200
  C:6A7CH         LINE#         201
  C:6A7CH         LINE#         202
  C:6A7CH         LINE#         203
  -------         ENDPROC       _ADC_INTERRUPT
  -------         PROC          READ_BANDGAP
  -------         DO            
  D:0007H         SYMBOL        BandgapHigh
  D:0005H         SYMBOL        BandgapLow
  D:0006H         SYMBOL        u16bgvalue
  -------         ENDDO         
  C:5D3BH         LINE#         211
  C:5D3BH         LINE#         212
  C:5D3BH         LINE#         215
  C:5D51H         LINE#         216
  C:5D54H         LINE#         217
  C:5D57H         LINE#         218
  C:5D59H         LINE#         219
  C:5D6EH         LINE#         220
  C:5D73H         LINE#         221
  C:5D76H         LINE#         222
  C:5D8CH         LINE#         223
  C:5D8EH         LINE#         224
  C:5D9BH         LINE#         225
  C:5DB1H         LINE#         226
  C:5DB1H         LINE#         227
  -------         ENDPROC       READ_BANDGAP
  -------         PROC          _ADC_VREF_SET
  D:0007H         SYMBOL        u8ADCVref
  D:0005H         SYMBOL        u8ADCVrefPreload
  D:0003H         SYMBOL        u8ADCVrefLevel
  C:4E1BH         LINE#         241
  C:4E1BH         LINE#         242
  C:4E1BH         LINE#         243
  C:4E22H         LINE#         244
  C:4E22H         LINE#         245
  C:4E22H         LINE#         246
  C:4E38H         LINE#         247
  C:4E3AH         LINE#         248
BL51 BANKED LINKER/LOCATER V6.22.2.0                                                  10/31/2022  08:45:44  PAGE 18


  C:4E3AH         LINE#         249
  C:4E50H         LINE#         250
  C:4E50H         LINE#         251
  C:4E50H         LINE#         252
  C:4E50H         LINE#         254
  C:4E57H         LINE#         255
  C:4E57H         LINE#         256
  C:4E57H         LINE#         257
  C:4E6DH         LINE#         258
  C:4E6FH         LINE#         259
  C:4E6FH         LINE#         260
  C:4E85H         LINE#         261
  C:4E85H         LINE#         262
  C:4E85H         LINE#         263
  C:4E85H         LINE#         264
  C:4E96H         LINE#         265
  C:4E96H         LINE#         266
  C:4E96H         LINE#         267
  C:4EA9H         LINE#         268
  C:4EAAH         LINE#         269
  C:4EAAH         LINE#         270
  C:4EC0H         LINE#         271
  C:4EC1H         LINE#         272
  C:4EC1H         LINE#         273
  C:4ED7H         LINE#         274
  C:4ED8H         LINE#         275
  C:4ED8H         LINE#         276
  C:4EEEH         LINE#         277
  C:4EEFH         LINE#         278
  C:4EEFH         LINE#         279
  C:4F05H         LINE#         280
  C:4F05H         LINE#         281
  C:4F05H         LINE#         283
  C:4F05H         LINE#         286
  -------         ENDPROC       _ADC_VREF_SET
  -------         ENDMOD        ADC

  -------         MODULE        GPIO
  C:0000H         SYMBOL        _ICE_DUMMY_
  D:00B1H         PUBLIC        P0M1
  D:00B3H         PUBLIC        P1M1
  D:00B2H         PUBLIC        P0M2
  D:0080H         PUBLIC        P0
  D:00B5H         PUBLIC        P2M1
  D:00B4H         PUBLIC        P1M2
  D:0090H         PUBLIC        P1
  D:00C2H         PUBLIC        P3M1
  D:00B6H         PUBLIC        P2M2
  D:00A0H         PUBLIC        P2
  D:00C3H         PUBLIC        P3M2
  D:00B9H         PUBLIC        P4M1
  D:00B0H         PUBLIC        P3
  D:00BDH         PUBLIC        P5M1
  D:00BAH         PUBLIC        P4M2
  D:00D8H         PUBLIC        P4
  D:009BH         PUBLIC        EIE0
  D:0084H         PUBLIC        P6M1
BL51 BANKED LINKER/LOCATER V6.22.2.0                                                  10/31/2022  08:45:44  PAGE 19


  D:00BEH         PUBLIC        P5M2
  D:0085H         PUBLIC        P6M2
  C:2586H         PUBLIC        _GPIO_EnableInt
  D:00A8H         PUBLIC        IE
  D:00B8H         PUBLIC        IP
  D:008AH         PUBLIC        P0DW
  D:008BH         PUBLIC        P1DW
  D:008CH         PUBLIC        P2DW
  D:008DH         PUBLIC        P3DW
  D:008EH         PUBLIC        P4DW
  D:008FH         PUBLIC        P5DW
  D:008FH         PUBLIC        P6DW
  D:0092H         PUBLIC        P0UP
  D:0093H         PUBLIC        P1UP
  D:0094H         PUBLIC        P2UP
  D:0095H         PUBLIC        P3UP
  D:0096H         PUBLIC        P4UP
  D:0097H         PUBLIC        P5UP
  D:0097H         PUBLIC        P6UP
  D:0098H         PUBLIC        SCON
  D:0088H         PUBLIC        TCON
  D:0091H         PUBLIC        SFRS
  C:4FEEH         PUBLIC        _GPIO_SetMode
  C:57EFH         PUBLIC        _GPIO_Pull_Disable
  D:00C0H         PUBLIC        I2C0CON
  D:00E8H         PUBLIC        I2C1CON
  C:5A45H         PUBLIC        _GPIO_Pull_Enable
  D:00F8H         PUBLIC        S1CON
  D:00C8H         PUBLIC        T2CON
  D:00A1H         PUBLIC        PIPS0
  D:00A2H         PUBLIC        PIPS1
  D:00A3H         PUBLIC        PIPS2
  D:00A4H         PUBLIC        PIPS3
  D:00A5H         PUBLIC        PIPS4
  D:00A6H         PUBLIC        PIPS5
  D:00A7H         PUBLIC        PIPS6
  D:00AFH         PUBLIC        PIPS7
  D:00E9H         PUBLIC        PICON
  D:00D0H         PUBLIC        PSW
  D:00EAH         PUBLIC        PINEN
  D:00EBH         PUBLIC        PIPEN
  -------         PROC          _GPIO_ENABLEINT
  D:0007H         SYMBOL        u8PIT
  D:0005H         SYMBOL        u8IntStatus
  D:0003H         SYMBOL        u8IntMode
  X:06F5H         SYMBOL        u8Port
  X:06F6H         SYMBOL        u8Bit
  C:2586H         LINE#         21
  C:2586H         LINE#         22
  C:2586H         LINE#         23
  C:25C4H         LINE#         24
  C:25C4H         LINE#         25
  C:25CCH         LINE#         26
  C:25D4H         LINE#         27
  C:25DCH         LINE#         28
  C:25E4H         LINE#         29
  C:25ECH         LINE#         30
BL51 BANKED LINKER/LOCATER V6.22.2.0                                                  10/31/2022  08:45:44  PAGE 20


  C:25F4H         LINE#         31
  C:25FCH         LINE#         32
  C:2604H         LINE#         34
  C:260CH         LINE#         35
  C:2614H         LINE#         36
  C:261CH         LINE#         37
  C:2624H         LINE#         38
  C:262CH         LINE#         39
  C:2634H         LINE#         40
  C:263CH         LINE#         41
  C:2642H         LINE#         42
  C:2642H         LINE#         43
  C:2642H         LINE#         44
  C:2698H         LINE#         45
  C:2698H         LINE#         46
  C:26A7H         LINE#         47
  C:26B6H         LINE#         48
  C:26C5H         LINE#         49
  C:26D4H         LINE#         50
  C:26E3H         LINE#         51
  C:26F2H         LINE#         52
  C:2701H         LINE#         53
  C:2710H         LINE#         55
  C:271FH         LINE#         56
  C:272EH         LINE#         57
  C:273DH         LINE#         58
  C:274CH         LINE#         59
  C:275BH         LINE#         60
  C:276AH         LINE#         61
  C:2778H         LINE#         62
  C:2786H         LINE#         64
  C:2794H         LINE#         65
  C:27A2H         LINE#         66
  C:27B0H         LINE#         67
  C:27BEH         LINE#         68
  C:27CCH         LINE#         69
  C:27DAH         LINE#         70
  C:27E8H         LINE#         71
  C:27F4H         LINE#         73
  C:27F4H         LINE#         74
  C:27F4H         LINE#         75
  C:281CH         LINE#         76
  C:281CH         LINE#         77
  C:2832H         LINE#         78
  C:2847H         LINE#         79
  C:285CH         LINE#         80
  C:2871H         LINE#         81
  C:2886H         LINE#         82
  C:289BH         LINE#         83
  C:28B0H         LINE#         84
  C:28C3H         LINE#         85
  C:28C3H         LINE#         86
  C:28C3H         LINE#         87
  C:28C9H         LINE#         88
  -------         ENDPROC       _GPIO_ENABLEINT
  -------         PROC          _GPIO_PULL_ENABLE
  D:0007H         SYMBOL        u8Port
BL51 BANKED LINKER/LOCATER V6.22.2.0                                                  10/31/2022  08:45:44  PAGE 21


  D:0005H         SYMBOL        u8PinMask
  D:0003H         SYMBOL        u8PullMode
  C:5A45H         LINE#         99
  C:5A45H         LINE#         100
  C:5A45H         LINE#         101
  C:5A48H         LINE#         102
  C:5A4FH         LINE#         103
  C:5A4FH         LINE#         104
  C:5A4FH         LINE#         105
  C:5A71H         LINE#         106
  C:5A71H         LINE#         107
  C:5A75H         LINE#         108
  C:5A79H         LINE#         109
  C:5A7DH         LINE#         110
  C:5A81H         LINE#         111
  C:5A85H         LINE#         112
  C:5A89H         LINE#         113
  C:5A8DH         LINE#         114
  C:5A8DH         LINE#         115
  C:5A8EH         LINE#         116
  C:5A8EH         LINE#         117
  C:5AB0H         LINE#         118
  C:5AB0H         LINE#         119
  C:5AB4H         LINE#         120
  C:5AB8H         LINE#         121
  C:5ABCH         LINE#         122
  C:5AC0H         LINE#         123
  C:5AC4H         LINE#         124
  C:5AC8H         LINE#         125
  C:5ACBH         LINE#         126
  C:5ACBH         LINE#         127
  C:5ACBH         LINE#         128
  C:5ACBH         LINE#         129
  -------         ENDPROC       _GPIO_PULL_ENABLE
  -------         PROC          _GPIO_PULL_DISABLE
  D:0007H         SYMBOL        u8Port
  D:0005H         SYMBOL        u8PinMask
  D:0003H         SYMBOL        u8PullMode
  C:57EFH         LINE#         141
  C:57EFH         LINE#         142
  C:57EFH         LINE#         143
  C:57F2H         LINE#         144
  C:57FCH         LINE#         145
  C:57FCH         LINE#         146
  C:57FCH         LINE#         147
  C:5821H         LINE#         148
  C:5821H         LINE#         149
  C:5826H         LINE#         150
  C:582BH         LINE#         151
  C:5830H         LINE#         152
  C:5835H         LINE#         153
  C:583AH         LINE#         154
  C:583FH         LINE#         155
  C:5844H         LINE#         156
  C:5844H         LINE#         157
  C:5845H         LINE#         158
  C:5845H         LINE#         159
BL51 BANKED LINKER/LOCATER V6.22.2.0                                                  10/31/2022  08:45:44  PAGE 22


  C:5867H         LINE#         160
  C:5867H         LINE#         161
  C:586CH         LINE#         162
  C:5871H         LINE#         163
  C:5876H         LINE#         164
  C:587BH         LINE#         165
  C:5880H         LINE#         166
  C:5885H         LINE#         167
  C:5889H         LINE#         168
  C:5889H         LINE#         169
  C:5889H         LINE#         170
  C:5889H         LINE#         171
  -------         ENDPROC       _GPIO_PULL_DISABLE
  -------         PROC          _GPIO_SETMODE
  X:0702H         SYMBOL        u8Port
  D:0001H         SYMBOL        u8PinMask
  D:0003H         SYMBOL        u8Mode
  -------         DO            
  D:0004H         SYMBOL        u8PnM1
  D:0006H         SYMBOL        u8PnM2
  -------         ENDDO         
  C:4FEEH         LINE#         183
  C:4FF5H         LINE#         184
  C:4FF5H         LINE#         187
  C:4FF8H         LINE#         188
  C:501AH         LINE#         189
  C:501AH         LINE#         190
  C:5020H         LINE#         191
  C:5026H         LINE#         192
  C:502CH         LINE#         193
  C:5032H         LINE#         194
  C:5038H         LINE#         195
  C:503EH         LINE#         196
  C:5042H         LINE#         197
  C:5042H         LINE#         198
  C:5050H         LINE#         199
  C:5050H         LINE#         200
  C:5050H         LINE#         201
  C:5055H         LINE#         202
  C:5058H         LINE#         203
  C:505AH         LINE#         204
  C:505AH         LINE#         205
  C:505EH         LINE#         206
  C:5061H         LINE#         207
  C:5063H         LINE#         208
  C:5063H         LINE#         209
  C:5066H         LINE#         210
  C:506AH         LINE#         211
  C:506CH         LINE#         212
  C:506CH         LINE#         213
  C:506FH         LINE#         214
  C:5072H         LINE#         215
  C:5072H         LINE#         216
  C:5072H         LINE#         217
  C:5097H         LINE#         218
  C:5097H         LINE#         219
  C:509DH         LINE#         220
BL51 BANKED LINKER/LOCATER V6.22.2.0                                                  10/31/2022  08:45:44  PAGE 23


  C:50A3H         LINE#         221
  C:50A9H         LINE#         222
  C:50AFH         LINE#         223
  C:50B5H         LINE#         224
  C:50BBH         LINE#         225
  C:50BFH         LINE#         226
  C:50BFH         LINE#         227
  C:50C2H         LINE#         229
  -------         ENDPROC       _GPIO_SETMODE
  -------         ENDMOD        GPIO

  -------         MODULE        I2C
  C:0000H         SYMBOL        _ICE_DUMMY_
  D:0080H         PUBLIC        P0
  D:0090H         PUBLIC        P1
  D:00A0H         PUBLIC        P2
  D:00B0H         PUBLIC        P3
  D:00D8H         PUBLIC        P4
  D:009BH         PUBLIC        EIE0
  D:009CH         PUBLIC        EIE1
  C:6D61H         PUBLIC        _I2C_DisableInt
  D:00A8H         PUBLIC        IE
  C:6D49H         PUBLIC        _I2C_EnableInt
  C:6DCCH         PUBLIC        _I2C_Close
  D:00B8H         PUBLIC        IP
  C:6E25H         PUBLIC        _I2C_SLAVE_ADDRESS_MASK_ENABLE
  D:00BDH         PUBLIC        I2C0STAT
  D:00B4H         PUBLIC        I2C1STAT
  C:5EFBH         PUBLIC        _I2C_Open
  D:0098H         PUBLIC        SCON
  D:0088H         PUBLIC        TCON
  D:00C1H         PUBLIC        I2C0ADDR0
  D:00A1H         PUBLIC        I2C0ADDR1
  D:00B2H         PUBLIC        I2C1ADDR0
  D:00A4H         PUBLIC        I2C1ADDR1
  D:00A2H         PUBLIC        I2C0ADDR2
  D:00A5H         PUBLIC        I2C1ADDR2
  D:00A3H         PUBLIC        I2C0ADDR3
  D:0091H         PUBLIC        SFRS
  D:00A6H         PUBLIC        I2C1ADDR3
  C:6DF0H         PUBLIC        _I2C_DisableTimeout
  C:6DA6H         PUBLIC        _I2C_GetStatus
  D:00BEH         PUBLIC        I2C0CLK
  D:00B5H         PUBLIC        I2C1CLK
  D:00C0H         PUBLIC        I2C0CON
  D:00E8H         PUBLIC        I2C1CON
  D:00BFH         PUBLIC        I2C0TOC
  C:6DDEH         PUBLIC        _I2C_EnableTimeout
  D:00B6H         PUBLIC        I2C1TOC
  C:6329H         PUBLIC        _I2C_SetSlaveAddrMask
  D:00CFH         PUBLIC        I2C0ADDRM
  D:00D7H         PUBLIC        I2C1ADDRM
  D:00F8H         PUBLIC        S1CON
  D:00C8H         PUBLIC        T2CON
  C:6DB9H         PUBLIC        _I2C_SLAVE_ADDRESS_MASK_DISABLE
  C:6E02H         PUBLIC        _I2C_ClearTimeoutFlag
  D:00D0H         PUBLIC        PSW
BL51 BANKED LINKER/LOCATER V6.22.2.0                                                  10/31/2022  08:45:44  PAGE 24


  -------         PROC          _I2C_OPEN
  D:0007H         SYMBOL        u8I2CSel
  X:0706H         SYMBOL        u32SYSCLK
  X:070AH         SYMBOL        u32I2CCLK
  C:5EFBH         LINE#         21
  C:5EFBH         LINE#         22
  C:5EFBH         LINE#         23
  C:5EFEH         LINE#         24
  C:5F05H         LINE#         25
  C:5F05H         LINE#         26
  C:5F35H         LINE#         27
  C:5F64H         LINE#         28
  C:5F64H         LINE#         29
  -------         ENDPROC       _I2C_OPEN
  -------         PROC          _I2C_CLOSE
  D:0007H         SYMBOL        u8I2CSel
  C:6DCCH         LINE#         36
  C:6DCCH         LINE#         37
  C:6DCCH         LINE#         38
  C:6DCFH         LINE#         39
  C:6DD6H         LINE#         40
  C:6DD6H         LINE#         41
  C:6DDAH         LINE#         42
  C:6DDDH         LINE#         43
  C:6DDDH         LINE#         44
  -------         ENDPROC       _I2C_CLOSE
  -------         PROC          _I2C_ENABLEINT
  D:0007H         SYMBOL        u8I2CSel
  C:6D49H         LINE#         51
  C:6D49H         LINE#         52
  C:6D49H         LINE#         53
  C:6D4CH         LINE#         54
  C:6D53H         LINE#         55
  C:6D53H         LINE#         56
  C:6D5AH         LINE#         57
  C:6D60H         LINE#         58
  C:6D60H         LINE#         59
  -------         ENDPROC       _I2C_ENABLEINT
  -------         PROC          _I2C_DISABLEINT
  D:0007H         SYMBOL        u8I2CSel
  C:6D61H         LINE#         66
  C:6D61H         LINE#         67
  C:6D61H         LINE#         68
  C:6D64H         LINE#         69
  C:6D6BH         LINE#         70
  C:6D6BH         LINE#         71
  C:6D72H         LINE#         72
  C:6D78H         LINE#         73
  C:6D78H         LINE#         74
  -------         ENDPROC       _I2C_DISABLEINT
  -------         PROC          _I2C_GETSTATUS
  D:0007H         SYMBOL        u8I2CSel
  -------         DO            
  D:0006H         SYMBOL        u8i2cstat
  -------         ENDDO         
  C:6DA6H         LINE#         82
  C:6DA6H         LINE#         83
BL51 BANKED LINKER/LOCATER V6.22.2.0                                                  10/31/2022  08:45:44  PAGE 25


  C:6DA6H         LINE#         85
  C:6DA9H         LINE#         86
  C:6DB0H         LINE#         87
  C:6DB0H         LINE#         88
  C:6DB4H         LINE#         89
  C:6DB6H         LINE#         90
  C:6DB6H         LINE#         91
  C:6DB8H         LINE#         92
  -------         ENDPROC       _I2C_GETSTATUS
  -------         PROC          _I2C_SETSLAVEADDRMASK
  D:0007H         SYMBOL        u8I2CSel
  D:0005H         SYMBOL        u8SlaveNo
  D:0003H         SYMBOL        u8SlaveAddrMask
  C:6329H         LINE#         104
  C:6329H         LINE#         105
  C:6329H         LINE#         106
  C:6330H         LINE#         107
  C:6330H         LINE#         108
  C:6330H         LINE#         109
  C:633EH         LINE#         110
  C:633EH         LINE#         111
  C:6345H         LINE#         112
  C:634CH         LINE#         113
  C:6353H         LINE#         114
  C:6358H         LINE#         115
  C:6358H         LINE#         116
  C:6358H         LINE#         117
  C:6366H         LINE#         118
  C:6366H         LINE#         119
  C:636CH         LINE#         120
  C:6372H         LINE#         121
  C:6378H         LINE#         122
  C:637FH         LINE#         123
  C:637FH         LINE#         124
  C:637FH         LINE#         125
  C:637FH         LINE#         126
  -------         ENDPROC       _I2C_SETSLAVEADDRMASK
  -------         PROC          _I2C_ENABLETIMEOUT
  D:0007H         SYMBOL        u8I2CSel
  C:6DDEH         LINE#         136
  C:6DDEH         LINE#         137
  C:6DDEH         LINE#         138
  C:6DE1H         LINE#         139
  C:6DE8H         LINE#         140
  C:6DE8H         LINE#         141
  C:6DECH         LINE#         142
  C:6DEFH         LINE#         143
  C:6DEFH         LINE#         144
  -------         ENDPROC       _I2C_ENABLETIMEOUT
  -------         PROC          _I2C_DISABLETIMEOUT
  D:0007H         SYMBOL        u8I2CSel
  C:6DF0H         LINE#         153
  C:6DF0H         LINE#         154
  C:6DF0H         LINE#         155
  C:6DF3H         LINE#         156
  C:6DFAH         LINE#         157
  C:6DFAH         LINE#         158
BL51 BANKED LINKER/LOCATER V6.22.2.0                                                  10/31/2022  08:45:44  PAGE 26


  C:6DFEH         LINE#         159
  C:6E01H         LINE#         160
  C:6E01H         LINE#         161
  -------         ENDPROC       _I2C_DISABLETIMEOUT
  -------         PROC          _I2C_CLEARTIMEOUTFLAG
  D:0007H         SYMBOL        u8I2CSel
  C:6E02H         LINE#         163
  C:6E02H         LINE#         164
  C:6E02H         LINE#         165
  C:6E05H         LINE#         166
  C:6E0CH         LINE#         167
  C:6E0CH         LINE#         168
  C:6E10H         LINE#         169
  C:6E13H         LINE#         170
  C:6E13H         LINE#         171
  C:6E13H         LINE#         172
  -------         ENDPROC       _I2C_CLEARTIMEOUTFLAG
  -------         PROC          _I2C_SLAVE_ADDRESS_MASK_ENABLE
  D:0007H         SYMBOL        u8I2CSel
  D:0005H         SYMBOL        u8I2CAddMaskBit
  C:6E25H         LINE#         182
  C:6E25H         LINE#         183
  C:6E25H         LINE#         184
  C:6E28H         LINE#         185
  C:6E2FH         LINE#         186
  C:6E2FH         LINE#         187
  C:6E32H         LINE#         188
  C:6E35H         LINE#         189
  C:6E35H         LINE#         190
  C:6E35H         LINE#         191
  -------         ENDPROC       _I2C_SLAVE_ADDRESS_MASK_ENABLE
  -------         PROC          _I2C_SLAVE_ADDRESS_MASK_DISABLE
  D:0007H         SYMBOL        u8I2CSLVSEL
  D:0005H         SYMBOL        u8I2CAddMaskBit
  C:6DB9H         LINE#         201
  C:6DB9H         LINE#         202
  C:6DB9H         LINE#         203
  C:6DBCH         LINE#         204
  C:6DC3H         LINE#         205
  C:6DC3H         LINE#         206
  C:6DC7H         LINE#         207
  C:6DCBH         LINE#         208
  C:6DCBH         LINE#         209
  C:6DCBH         LINE#         210
  -------         ENDPROC       _I2C_SLAVE_ADDRESS_MASK_DISABLE
  -------         ENDMOD        I2C

  -------         MODULE        UART3
  C:0000H         SYMBOL        _ICE_DUMMY_
  D:00DBH         PUBLIC        SC1ETURD0
  D:00DCH         PUBLIC        SC1ETURD1
  D:0080H         PUBLIC        P0
  D:0090H         PUBLIC        P1
  D:00A0H         PUBLIC        P2
  D:00B0H         PUBLIC        P3
  D:00D8H         PUBLIC        P4
  D:00E6H         PUBLIC        SC1CR0
BL51 BANKED LINKER/LOCATER V6.22.2.0                                                  10/31/2022  08:45:44  PAGE 27


  D:00A8H         PUBLIC        IE
  D:00E7H         PUBLIC        SC1CR1
  D:00B8H         PUBLIC        IP
  D:0098H         PUBLIC        SCON
  D:0088H         PUBLIC        TCON
  C:009EH         PUBLIC        _UART3_Send_Data
  D:0091H         PUBLIC        SFRS
  D:00DFH         PUBLIC        SC1TSR
  D:00C0H         PUBLIC        I2C0CON
  D:00E8H         PUBLIC        I2C1CON
  X:073EH         PUBLIC        uart3rvbuffer
  D:00D9H         PUBLIC        SC1DR
  C:6CC3H         PUBLIC        SMC1_ISR
  D:00F8H         PUBLIC        S1CON
  C:53D3H         PUBLIC        _UART3_Open
  D:00C8H         PUBLIC        T2CON
  C:007EH         PUBLIC        UART3_Receive_Data
  B:0020H.6       PUBLIC        uart3rvflag
  D:00D0H         PUBLIC        PSW
  -------         PROC          SMC1_ISR
  C:6CC3H         LINE#         19
  C:6CC9H         LINE#         21
  C:6CCBH         LINE#         22
  C:6CCEH         LINE#         23
  C:6CD0H         LINE#         24
  C:6CD6H         LINE#         25
  C:6CD8H         LINE#         26
  -------         ENDPROC       SMC1_ISR
  -------         PROC          _UART3_OPEN
  X:0716H         SYMBOL        u32SysClock
  X:071AH         SYMBOL        u32Baudrate
  C:53D3H         LINE#         35
  C:53D9H         LINE#         36
  C:53D9H         LINE#         37
  C:53DFH         LINE#         38
  C:53E5H         LINE#         39
  C:53EBH         LINE#         40
  C:53F1H         LINE#         41
  C:53F7H         LINE#         42
  C:5433H         LINE#         43
  C:5436H         LINE#         44
  C:5477H         LINE#         45
  C:547DH         LINE#         46
  C:5480H         LINE#         47
  C:5486H         LINE#         48
  -------         ENDPROC       _UART3_OPEN
  -------         PROC          UART3_RECEIVE_DATA
  -------         DO            
  D:0007H         SYMBOL        c
  -------         ENDDO         
  C:007EH         LINE#         57
  C:007EH         LINE#         58
  C:007EH         LINE#         61
  C:0084H         LINE#         62
  C:0098H         LINE#         63
  C:009AH         LINE#         65
  C:009AH         LINE#         66
BL51 BANKED LINKER/LOCATER V6.22.2.0                                                  10/31/2022  08:45:44  PAGE 28


  -------         ENDPROC       UART3_RECEIVE_DATA
  -------         PROC          _UART3_SEND_DATA
  D:0007H         SYMBOL        c
  C:009EH         LINE#         75
  C:009EH         LINE#         76
  C:009EH         LINE#         77
  C:00A4H         LINE#         78
  C:00A6H         LINE#         79
  C:00ABH         LINE#         80
  C:00B1H         LINE#         81
  -------         ENDPROC       _UART3_SEND_DATA
  -------         ENDMOD        UART3

  -------         MODULE        UART
  C:0000H         SYMBOL        _ICE_DUMMY_
  D:0080H         PUBLIC        P0
  D:0090H         PUBLIC        P1
  D:00C2H         PUBLIC        P3M1
  D:00A0H         PUBLIC        P2
  D:00C3H         PUBLIC        P3M2
  D:00B0H         PUBLIC        P3
  D:00D8H         PUBLIC        P4
  D:009CH         PUBLIC        EIE1
  C:6BC7H         PUBLIC        _UART_Send_Data
  B:0020H.0       PUBLIC        UART0PRINTFG
  B:0020H.1       PUBLIC        UART1PRINTFG
  D:00A8H         PUBLIC        IE
  D:00B8H         PUBLIC        IP
  B:0098H.0       PUBLIC        RI
  B:0098H.1       PUBLIC        TI
  C:6AAAH         PUBLIC        _UART_Interrupt_Enable
  C:6962H         PUBLIC        Enable_UART0_VCOM_printf
  B:00F8H.0       PUBLIC        RI_1
  B:00F8H.1       PUBLIC        TI_1
  D:0099H         PUBLIC        SBUF
  D:0087H         PUBLIC        PCON
  C:4171H         PUBLIC        _UART_Open
  D:0098H         PUBLIC        SCON
  X:073BH         PUBLIC        uart0_receive_data
  B:0020H.2       PUBLIC        uart0_receive_flag
  D:0089H         PUBLIC        TMOD
  D:0088H         PUBLIC        TCON
  X:073CH         PUBLIC        uart1_receive_data
  B:0020H.3       PUBLIC        uart1_receive_flag
  C:6C68H         PUBLIC        UART0_ISR
  D:0091H         PUBLIC        SFRS
  C:6C87H         PUBLIC        _UART_Receive_Data
  D:00C6H         PUBLIC        RH3
  D:008DH         PUBLIC        TH1
  D:00C0H         PUBLIC        I2C0CON
  D:00E8H         PUBLIC        I2C1CON
  D:00C5H         PUBLIC        RL3
  D:009AH         PUBLIC        SBUF1
  D:00F8H         PUBLIC        S1CON
  D:00C8H         PUBLIC        T2CON
  D:00C4H         PUBLIC        T3CON
  D:008EH         PUBLIC        CKCON
BL51 BANKED LINKER/LOCATER V6.22.2.0                                                  10/31/2022  08:45:44  PAGE 29


  D:00F6H         PUBLIC        P3MF10
  D:00D0H         PUBLIC        PSW
  -------         PROC          ENABLE_UART0_VCOM_PRINTF
  C:6962H         LINE#         20
  C:6962H         LINE#         21
  C:6962H         LINE#         26
  C:696BH         LINE#         27
  C:6974H         LINE#         28
  C:698DH         LINE#         29
  C:6992H         LINE#         30
  -------         ENDPROC       ENABLE_UART0_VCOM_PRINTF
  -------         PROC          UART0_ISR
  C:6C68H         LINE#         40
  C:6C6EH         LINE#         42
  C:6C70H         LINE#         43
  C:6C73H         LINE#         44
  C:6C73H         LINE#         45
  C:6C75H         LINE#         46
  C:6C7BH         LINE#         47
  C:6C7EH         LINE#         48
  C:6C7EH         LINE#         49
  C:6C7EH         LINE#         50
  C:6C7EH         LINE#         53
  C:6C7EH         LINE#         54
  C:6C80H         LINE#         55
  -------         ENDPROC       UART0_ISR
  -------         PROC          _UART_OPEN
  X:06F2H         SYMBOL        u32SysClock
  X:06F6H         SYMBOL        u8UARTPort
  X:06F7H         SYMBOL        u32Baudrate
  C:4171H         LINE#         73
  C:4177H         LINE#         74
  C:4177H         LINE#         75
  C:4196H         LINE#         76
  C:4196H         LINE#         77
  C:4196H         LINE#         78
  C:4196H         LINE#         79
  C:4199H         LINE#         80
  C:419CH         LINE#         81
  C:419FH         LINE#         82
  C:41A2H         LINE#         83
  C:41A7H         LINE#         84
  C:41ACH         LINE#         85
  C:41D8H         LINE#         86
  C:41DBH         LINE#         87
  C:41DCH         LINE#         88
  C:41DCH         LINE#         89
  C:41DFH         LINE#         90
  C:41E2H         LINE#         91
  C:41E5H         LINE#         92
  C:41E8H         LINE#         93
  C:41EDH         LINE#         94
  C:4229H         LINE#         95
  C:4263H         LINE#         96
  C:4268H         LINE#         97
  C:4269H         LINE#         98
  C:4269H         LINE#         99
BL51 BANKED LINKER/LOCATER V6.22.2.0                                                  10/31/2022  08:45:44  PAGE 30


  C:4269H         LINE#         100
  C:426CH         LINE#         101
  C:426FH         LINE#         102
  C:4272H         LINE#         103
  C:42AEH         LINE#         104
  C:42E8H         LINE#         105
  C:42EDH         LINE#         106
  C:42EDH         LINE#         108
  C:42EDH         LINE#         109
  -------         ENDPROC       _UART_OPEN
  -------         PROC          _UART_RECEIVE_DATA
  D:0007H         SYMBOL        UARTPort
  -------         DO            
  D:0006H         SYMBOL        c
  -------         ENDDO         
  C:6C87H         LINE#         113
  C:6C87H         LINE#         114
  C:6C87H         LINE#         116
  C:6C8AH         LINE#         117
  C:6C92H         LINE#         118
  C:6C92H         LINE#         119
  C:6C92H         LINE#         120
  C:6C95H         LINE#         121
  C:6C97H         LINE#         122
  C:6C99H         LINE#         123
  C:6C9BH         LINE#         124
  C:6C9BH         LINE#         125
  C:6C9EH         LINE#         126
  C:6CA0H         LINE#         127
  C:6CA2H         LINE#         128
  C:6CA2H         LINE#         129
  C:6CA2H         LINE#         130
  C:6CA4H         LINE#         131
  -------         ENDPROC       _UART_RECEIVE_DATA
  -------         PROC          _UART_SEND_DATA
  D:0007H         SYMBOL        UARTPort
  D:0005H         SYMBOL        c
  C:6BC7H         LINE#         135
  C:6BC7H         LINE#         136
  C:6BC7H         LINE#         137
  C:6BCAH         LINE#         138
  C:6BD2H         LINE#         139
  C:6BD2H         LINE#         140
  C:6BD2H         LINE#         141
  C:6BD4H         LINE#         142
  C:6BD6H         LINE#         143
  C:6BD9H         LINE#         144
  C:6BDBH         LINE#         145
  C:6BDCH         LINE#         146
  C:6BDCH         LINE#         147
  C:6BDEH         LINE#         148
  C:6BE2H         LINE#         149
  C:6BE5H         LINE#         150
  C:6BE7H         LINE#         151
  C:6BE7H         LINE#         152
  C:6BE7H         LINE#         153
  -------         ENDPROC       _UART_SEND_DATA
BL51 BANKED LINKER/LOCATER V6.22.2.0                                                  10/31/2022  08:45:44  PAGE 31


  -------         PROC          _UART_INTERRUPT_ENABLE
  D:0007H         SYMBOL        u8UARTPort
  D:0005H         SYMBOL        u8UARTINTStatus
  C:6AAAH         LINE#         164
  C:6AAAH         LINE#         165
  C:6AAAH         LINE#         166
  C:6AB2H         LINE#         167
  C:6AB2H         LINE#         168
  C:6AB2H         LINE#         169
  C:6AB9H         LINE#         170
  C:6AB9H         LINE#         171
  C:6ABDH         LINE#         172
  C:6AC1H         LINE#         173
  C:6AC1H         LINE#         174
  C:6AC2H         LINE#         175
  C:6AC2H         LINE#         176
  C:6AC9H         LINE#         177
  C:6AC9H         LINE#         178
  C:6AD0H         LINE#         179
  C:6AD6H         LINE#         180
  C:6AD6H         LINE#         181
  C:6AD6H         LINE#         182
  C:6AD6H         LINE#         183
  -------         ENDPROC       _UART_INTERRUPT_ENABLE
  -------         ENDMOD        UART

  -------         MODULE        PWM0
  C:0000H         SYMBOL        _ICE_DUMMY_
  D:0080H         PUBLIC        P0
  D:0090H         PUBLIC        P1
  D:00A0H         PUBLIC        P2
  D:00B0H         PUBLIC        P3
  D:00D8H         PUBLIC        P4
  B:00A8H.7       PUBLIC        EA
  D:00A8H         PUBLIC        IE
  D:00C7H         PUBLIC        TA
  D:00B8H         PUBLIC        IP
  D:00FAH         PUBLIC        PWM0DTCNT
  D:0098H         PUBLIC        SCON
  C:36A0H         PUBLIC        _PWM0_ConfigOutputChannel
  D:0088H         PUBLIC        TCON
  D:00D1H         PUBLIC        PWM0CON0
  D:00DFH         PUBLIC        PWM0CON1
  D:009DH         PUBLIC        PWM1CON1
  D:00D1H         PUBLIC        PWM0PH
  D:0091H         PUBLIC        SFRS
  D:00D9H         PUBLIC        PWM0PL
  D:00E0H         PUBLIC        ACC
  C:6F15H         PUBLIC        PWM0_STOP
  D:00C0H         PUBLIC        I2C0CON
  D:00E8H         PUBLIC        I2C1CON
  D:00F9H         PUBLIC        PWM0DTEN
  C:61C0H         PUBLIC        _PWM0_DeadZoneEnable
  D:00D2H         PUBLIC        PWM0C0H
  D:00D3H         PUBLIC        PWM0C1H
  D:00D4H         PUBLIC        PWM0C2H
  D:00D5H         PUBLIC        PWM0C3H
BL51 BANKED LINKER/LOCATER V6.22.2.0                                                  10/31/2022  08:45:44  PAGE 32


  D:00DAH         PUBLIC        PWM0C0L
  D:00C4H         PUBLIC        PWM0C4H
  D:00F8H         PUBLIC        S1CON
  D:00DBH         PUBLIC        PWM0C1L
  D:00C5H         PUBLIC        PWM0C5H
  D:00DCH         PUBLIC        PWM0C2L
  D:00C8H         PUBLIC        T2CON
  D:00DDH         PUBLIC        PWM0C3L
  C:6E36H         PUBLIC        PWM0_DeadZone_ALL_Disable
  D:00CCH         PUBLIC        PWM0C4L
  D:00CDH         PUBLIC        PWM0C5L
  C:5DB2H         PUBLIC        _PWM0_ClockSource
  C:5E20H         PUBLIC        _PWM1_ClockSource
  D:008EH         PUBLIC        CKCON
  D:00D0H         PUBLIC        PSW
  C:6F0EH         PUBLIC        PWM0_RUN
  -------         PROC          _PWM0_CLOCKSOURCE
  D:0007H         SYMBOL        u8PWMCLKSource
  D:0005H         SYMBOL        u8PWM0CLKDIV
  C:5DB2H         LINE#         25
  C:5DB2H         LINE#         26
  C:5DB2H         LINE#         27
  C:5DB9H         LINE#         28
  C:5DB9H         LINE#         29
  C:5DC1H         LINE#         30
  C:5DC7H         LINE#         31
  C:5DC7H         LINE#         32
  C:5DCAH         LINE#         33
  C:5DEBH         LINE#         34
  C:5DEBH         LINE#         35
  C:5DEFH         LINE#         36
  C:5DF6H         LINE#         37
  C:5DFDH         LINE#         38
  C:5E04H         LINE#         39
  C:5E0BH         LINE#         40
  C:5E12H         LINE#         41
  C:5E19H         LINE#         42
  C:5E1FH         LINE#         43
  C:5E1FH         LINE#         44
  -------         ENDPROC       _PWM0_CLOCKSOURCE
  -------         PROC          _PWM0_CONFIGOUTPUTCHANNEL
  D:0007H         SYMBOL        u8PWM0ChannelNum
  D:0005H         SYMBOL        u8PWM0OPMode
  D:0003H         SYMBOL        u8PWM0PwmType
  X:06F6H         SYMBOL        u32PWM0Frequency
  X:06FAH         SYMBOL        u16PWM0DutyCycle
  C:36A0H         LINE#         57
  C:36A0H         LINE#         62
  C:36A0H         LINE#         63
  C:36A3H         LINE#         64
  C:36AEH         LINE#         65
  C:36AEH         LINE#         66
  C:36B3H         LINE#         67
  C:36BBH         LINE#         68
  C:36C1H         LINE#         69
  C:36C1H         LINE#         70
  C:36C8H         LINE#         71
BL51 BANKED LINKER/LOCATER V6.22.2.0                                                  10/31/2022  08:45:44  PAGE 33


  C:36C8H         LINE#         72
  C:36CDH         LINE#         73
  C:36D0H         LINE#         74
  C:36D0H         LINE#         75
  C:36F3H         LINE#         76
  C:36F3H         LINE#         77
  C:3749H         LINE#         78
  C:379FH         LINE#         79
  C:37F5H         LINE#         80
  C:384BH         LINE#         81
  C:38A0H         LINE#         82
  C:38F3H         LINE#         83
  C:38F3H         LINE#         84
  C:3908H         LINE#         85
  C:3914H         LINE#         86
  -------         ENDPROC       _PWM0_CONFIGOUTPUTCHANNEL
  -------         PROC          _PWM0_DEADZONEENABLE
  D:0007H         SYMBOL        u8PWM0Pair
  D:0004H         SYMBOL        u16PWM0DZValue
  C:61C0H         LINE#         96
  C:61C0H         LINE#         97
  C:61C0H         LINE#         98
  C:61C3H         LINE#         99
  C:61C9H         LINE#         100
  C:61CEH         LINE#         101
  C:61D6H         LINE#         102
  C:61E4H         LINE#         103
  C:61E4H         LINE#         104
  C:61EFH         LINE#         105
  C:61FAH         LINE#         106
  C:6205H         LINE#         107
  C:620EH         LINE#         108
  C:620EH         LINE#         109
  C:620FH         LINE#         110
  C:6215H         LINE#         111
  C:6217H         LINE#         112
  C:621BH         LINE#         113
  -------         ENDPROC       _PWM0_DEADZONEENABLE
  -------         PROC          PWM0_DEADZONE_ALL_DISABLE
  C:6E36H         LINE#         122
  C:6E36H         LINE#         123
  C:6E36H         LINE#         124
  C:6E39H         LINE#         125
  C:6E3FH         LINE#         126
  C:6E42H         LINE#         127
  C:6E46H         LINE#         128
  -------         ENDPROC       PWM0_DEADZONE_ALL_DISABLE
  -------         PROC          PWM0_RUN
  C:6F0EH         LINE#         137
  C:6F0EH         LINE#         138
  C:6F0EH         LINE#         139
  C:6F14H         LINE#         140
  -------         ENDPROC       PWM0_RUN
  -------         PROC          PWM0_STOP
  C:6F15H         LINE#         149
  C:6F15H         LINE#         150
  C:6F15H         LINE#         151
BL51 BANKED LINKER/LOCATER V6.22.2.0                                                  10/31/2022  08:45:44  PAGE 34


  C:6F1BH         LINE#         152
  -------         ENDPROC       PWM0_STOP
  -------         PROC          _PWM1_CLOCKSOURCE
  D:0007H         SYMBOL        u8PWMCLKSource
  D:0005H         SYMBOL        u8PWM0CLKDIV
  C:5E20H         LINE#         166
  C:5E20H         LINE#         167
  C:5E20H         LINE#         168
  C:5E27H         LINE#         169
  C:5E27H         LINE#         170
  C:5E2FH         LINE#         171
  C:5E35H         LINE#         172
  C:5E35H         LINE#         173
  C:5E38H         LINE#         174
  C:5E59H         LINE#         175
  C:5E59H         LINE#         176
  C:5E5DH         LINE#         177
  C:5E64H         LINE#         178
  C:5E6BH         LINE#         179
  C:5E72H         LINE#         180
  C:5E79H         LINE#         181
  C:5E80H         LINE#         182
  C:5E87H         LINE#         183
  C:5E8DH         LINE#         184
  C:5E8DH         LINE#         185
  -------         ENDPROC       _PWM1_CLOCKSOURCE
  -------         ENDMOD        PWM0

  -------         MODULE        PWM123
  C:0000H         SYMBOL        _ICE_DUMMY_
  D:0080H         PUBLIC        P0
  D:0090H         PUBLIC        P1
  D:00A0H         PUBLIC        P2
  D:00B0H         PUBLIC        P3
  D:00D8H         PUBLIC        P4
  D:00A8H         PUBLIC        IE
  D:00B8H         PUBLIC        IP
  C:4BF7H         PUBLIC        _PWM123_ConfigOutputChannel
  D:0098H         PUBLIC        SCON
  D:0088H         PUBLIC        TCON
  D:009DH         PUBLIC        PWM1CON1
  D:00C5H         PUBLIC        PWM2CON1
  D:00D5H         PUBLIC        PWM3CON1
  D:0086H         PUBLIC        PWM1PH
  D:0091H         PUBLIC        SFRS
  D:00B9H         PUBLIC        PWM2PH
  D:00C9H         PUBLIC        PWM3PH
  D:0099H         PUBLIC        PWM1PL
  D:00C1H         PUBLIC        PWM2PL
  D:00D1H         PUBLIC        PWM3PL
  D:00C0H         PUBLIC        I2C0CON
  D:00E8H         PUBLIC        I2C1CON
  C:3B38H         PUBLIC        _PWM123_ClockSource
  D:008AH         PUBLIC        PWM1C0H
  D:00BAH         PUBLIC        PWM2C0H
  D:008BH         PUBLIC        PWM1C1H
  D:00CAH         PUBLIC        PWM3C0H
BL51 BANKED LINKER/LOCATER V6.22.2.0                                                  10/31/2022  08:45:44  PAGE 35


  D:00BBH         PUBLIC        PWM2C1H
  D:00CBH         PUBLIC        PWM3C1H
  D:00F8H         PUBLIC        S1CON
  D:009AH         PUBLIC        PWM1C0L
  D:00C2H         PUBLIC        PWM2C0L
  D:009BH         PUBLIC        PWM1C1L
  D:00C8H         PUBLIC        T2CON
  D:00D2H         PUBLIC        PWM3C0L
  D:00C3H         PUBLIC        PWM2C1L
  D:00D3H         PUBLIC        PWM3C1L
  D:00D0H         PUBLIC        PSW
  -------         PROC          _PWM123_CLOCKSOURCE
  D:0007H         SYMBOL        u8PWMNum
  X:06F2H         SYMBOL        u8PWMCLKDIV
  C:3B38H         LINE#         23
  C:3B3DH         LINE#         24
  C:3B3DH         LINE#         25
  C:3B3FH         LINE#         26
  C:3B54H         LINE#         27
  C:3B54H         LINE#         28
  C:3B54H         LINE#         29
  C:3B7BH         LINE#         30
  C:3B7BH         LINE#         31
  C:3B84H         LINE#         32
  C:3B90H         LINE#         33
  C:3B9CH         LINE#         34
  C:3BA8H         LINE#         35
  C:3BB4H         LINE#         36
  C:3BC0H         LINE#         37
  C:3BCCH         LINE#         38
  C:3BD5H         LINE#         39
  C:3BD5H         LINE#         40
  C:3BD8H         LINE#         41
  C:3BD8H         LINE#         42
  C:3BFFH         LINE#         43
  C:3BFFH         LINE#         44
  C:3C08H         LINE#         45
  C:3C14H         LINE#         46
  C:3C20H         LINE#         47
  C:3C2CH         LINE#         48
  C:3C38H         LINE#         49
  C:3C44H         LINE#         50
  C:3C4FH         LINE#         51
  C:3C57H         LINE#         52
  C:3C57H         LINE#         53
  C:3C59H         LINE#         54
  C:3C59H         LINE#         55
  C:3C7DH         LINE#         56
  C:3C7DH         LINE#         57
  C:3C85H         LINE#         58
  C:3C90H         LINE#         59
  C:3C9BH         LINE#         60
  C:3CA6H         LINE#         61
  C:3CB1H         LINE#         62
  C:3CBCH         LINE#         63
  C:3CC7H         LINE#         64
  C:3CCDH         LINE#         65
BL51 BANKED LINKER/LOCATER V6.22.2.0                                                  10/31/2022  08:45:44  PAGE 36


  C:3CCDH         LINE#         66
  C:3CCDH         LINE#         67
  C:3CCDH         LINE#         68
  C:3CCFH         LINE#         69
  -------         ENDPROC       _PWM123_CLOCKSOURCE
  -------         PROC          _PWM123_CONFIGOUTPUTCHANNEL
  D:0007H         SYMBOL        u8PWMNum
  X:06F3H         SYMBOL        u8PWMChannelNum
  D:0002H         SYMBOL        u16PWMFrequency
  X:06F6H         SYMBOL        u16PWMDutyCycle
  C:4BF7H         LINE#         83
  C:4BFCH         LINE#         87
  C:4BFCH         LINE#         88
  C:4BFEH         LINE#         89
  C:4C01H         LINE#         90
  C:4C13H         LINE#         91
  C:4C13H         LINE#         92
  C:4C13H         LINE#         93
  C:4C1DH         LINE#         94
  C:4C1DH         LINE#         95
  C:4C3EH         LINE#         96
  C:4C5DH         LINE#         97
  C:4C5DH         LINE#         98
  C:4C60H         LINE#         99
  C:4C62H         LINE#         100
  C:4C65H         LINE#         101
  C:4C65H         LINE#         102
  C:4C6FH         LINE#         103
  C:4C6FH         LINE#         104
  C:4C90H         LINE#         105
  C:4CAFH         LINE#         106
  C:4CAFH         LINE#         107
  C:4CB2H         LINE#         108
  C:4CB4H         LINE#         109
  C:4CB6H         LINE#         110
  C:4CB6H         LINE#         111
  C:4CC0H         LINE#         112
  C:4CC0H         LINE#         113
  C:4CE1H         LINE#         114
  C:4D00H         LINE#         115
  C:4D00H         LINE#         116
  C:4D03H         LINE#         117
  C:4D07H         LINE#         118
  C:4D07H         LINE#         119
  C:4D07H         LINE#         120
  C:4D09H         LINE#         121
  -------         ENDPROC       _PWM123_CONFIGOUTPUTCHANNEL
  -------         ENDMOD        PWM123

  -------         MODULE        EEPROM
  C:0000H         SYMBOL        _ICE_DUMMY_
  D:0080H         PUBLIC        P0
  D:0090H         PUBLIC        P1
  D:00A0H         PUBLIC        P2
  D:00B0H         PUBLIC        P3
  D:00D8H         PUBLIC        P4
  B:00A8H.7       PUBLIC        EA
BL51 BANKED LINKER/LOCATER V6.22.2.0                                                  10/31/2022  08:45:44  PAGE 37


  D:00A8H         PUBLIC        IE
  C:446BH         PUBLIC        _Write_DATAFLASH_BYTE
  D:00C7H         PUBLIC        TA
  D:00B8H         PUBLIC        IP
  D:0098H         PUBLIC        SCON
  D:0088H         PUBLIC        TCON
  D:009FH         PUBLIC        CHPCON
  D:0091H         PUBLIC        SFRS
  D:00A5H         PUBLIC        IAPUEN
  D:00A4H         PUBLIC        IAPTRG
  C:5FCEH         PUBLIC        _Read_DATAFLASH_ARRAY
  D:00C0H         PUBLIC        I2C0CON
  D:00E8H         PUBLIC        I2C1CON
  C:5196H         PUBLIC        _Write_DATAFLASH_ARRAY
  D:00A7H         PUBLIC        IAPAH
  D:00F8H         PUBLIC        S1CON
  D:00AEH         PUBLIC        IAPFD
  D:00C8H         PUBLIC        T2CON
  D:00A6H         PUBLIC        IAPAL
  D:00AFH         PUBLIC        IAPCN
  C:33FDH         PUBLIC        _WriteDataToOnePage
  D:00D0H         PUBLIC        PSW
  -------         PROC          _WRITE_DATAFLASH_BYTE
  X:0726H         SYMBOL        u16EPAddr
  X:0728H         SYMBOL        u8EPData
  -------         DO            
  X:0729H         SYMBOL        looptmp
  X:072AH         SYMBOL        u16_addrl_r
  D:0006H         SYMBOL        RAMtmp
  -------         ENDDO         
  C:446BH         LINE#         26
  C:4476H         LINE#         27
  C:4476H         LINE#         28
  C:4479H         LINE#         33
  C:449BH         LINE#         36
  C:44AEH         LINE#         37
  C:44AEH         LINE#         38
  C:44C0H         LINE#         39
  C:44CFH         LINE#         40
  C:44D7H         LINE#         43
  C:44EFH         LINE#         46
  C:44F8H         LINE#         47
  C:44FBH         LINE#         48
  C:44FEH         LINE#         49
  C:4514H         LINE#         50
  C:4529H         LINE#         51
  C:452CH         LINE#         52
  C:4541H         LINE#         55
  C:4556H         LINE#         56
  C:456BH         LINE#         57
  C:456EH         LINE#         59
  C:4580H         LINE#         60
  C:4580H         LINE#         61
  C:458AH         LINE#         62
  C:458DH         LINE#         63
  C:459AH         LINE#         64
  C:45B0H         LINE#         65
BL51 BANKED LINKER/LOCATER V6.22.2.0                                                  10/31/2022  08:45:44  PAGE 38


  C:45B8H         LINE#         67
  C:45CEH         LINE#         68
  C:45E3H         LINE#         69
  -------         ENDPROC       _WRITE_DATAFLASH_BYTE
  -------         PROC          _WRITE_DATAFLASH_ARRAY
  X:071EH         SYMBOL        u16_addr
  X:0720H         SYMBOL        pDat
  X:0723H         SYMBOL        num
  -------         DO            
  D:0003H         SYMBOL        CPageAddr
  X:0725H         SYMBOL        EPageAddr
  D:0005H         SYMBOL        cnt
  -------         ENDDO         
  C:5196H         LINE#         73
  C:51A7H         LINE#         74
  C:51A7H         LINE#         76
  C:51BBH         LINE#         77
  C:51D5H         LINE#         79
  C:51DCH         LINE#         80
  C:51DCH         LINE#         81
  C:51F8H         LINE#         82
  C:5206H         LINE#         83
  C:5210H         LINE#         84
  C:521FH         LINE#         85
  C:5230H         LINE#         86
  C:5232H         LINE#         88
  C:523DH         LINE#         89
  C:523DH         LINE#         90
  C:5256H         LINE#         91
  C:5256H         LINE#         92
  -------         ENDPROC       _WRITE_DATAFLASH_ARRAY
  -------         PROC          _READ_DATAFLASH_ARRAY
  X:06F7H         SYMBOL        u16_addr
  X:06F9H         SYMBOL        pDat
  X:06FCH         SYMBOL        num
  -------         DO            
  X:06FEH         SYMBOL        i
  -------         ENDDO         
  C:5FCEH         LINE#         94
  C:5FDFH         LINE#         95
  C:5FDFH         LINE#         98
  C:5FFAH         LINE#         99
  C:6035H         LINE#         100
  -------         ENDPROC       _READ_DATAFLASH_ARRAY
  -------         PROC          _WRITEDATATOONEPAGE
  X:05D5H         SYMBOL        u16_addr
  X:05D7H         SYMBOL        pDat
  X:05DAH         SYMBOL        num
  -------         DO            
  X:05DBH         SYMBOL        i
  X:05DCH         SYMBOL        offset
  X:05DDH         SYMBOL        pCode
  X:05DFH         SYMBOL        xd_tmp
  C:3544H         SYMBOL        WriteDataToPage20
  -------         ENDDO         
  C:33FDH         LINE#         103
  C:340EH         LINE#         104
BL51 BANKED LINKER/LOCATER V6.22.2.0                                                  10/31/2022  08:45:44  PAGE 39


  C:340EH         LINE#         109
  C:3424H         LINE#         110
  C:3439H         LINE#         112
  C:3448H         LINE#         113
  C:3451H         LINE#         115
  C:345FH         LINE#         117
  C:3467H         LINE#         119
  C:3478H         LINE#         120
  C:3478H         LINE#         121
  C:348BH         LINE#         122
  C:3493H         LINE#         124
  C:349DH         LINE#         125
  C:349DH         LINE#         126
  C:34A0H         LINE#         127
  C:34A9H         LINE#         128
  C:34ACH         LINE#         130
  C:34BDH         LINE#         131
  C:34BDH         LINE#         132
  C:34D2H         LINE#         133
  C:34E8H         LINE#         134
  C:34EAH         LINE#         135
  C:34F2H         LINE#         137
  C:3503H         LINE#         138
  C:3503H         LINE#         139
  C:352AH         LINE#         140
  C:3532H         LINE#         142
  C:3541H         LINE#         143
  C:3544H         LINE#         145
  C:3544H         LINE#         146
  C:3544H         LINE#         147
  C:3555H         LINE#         149
  C:3567H         LINE#         150
  C:3567H         LINE#         151
  C:3586H         LINE#         152
  C:358EH         LINE#         154
  C:359EH         LINE#         155
  C:359EH         LINE#         156
  C:35C7H         LINE#         157
  C:35CFH         LINE#         160
  C:35CFH         LINE#         161
  C:35DAH         LINE#         162
  C:35DDH         LINE#         163
  C:35E0H         LINE#         164
  C:35E3H         LINE#         165
  C:35F9H         LINE#         166
  C:35FCH         LINE#         168
  C:360EH         LINE#         169
  C:360EH         LINE#         170
  C:361BH         LINE#         171
  C:3631H         LINE#         172
  C:3633H         LINE#         173
  C:363BH         LINE#         175
  C:3650H         LINE#         176
  C:3650H         LINE#         177
  C:3673H         LINE#         178
  C:367BH         LINE#         179
  C:3684H         LINE#         181
BL51 BANKED LINKER/LOCATER V6.22.2.0                                                  10/31/2022  08:45:44  PAGE 40


  C:3684H         LINE#         183
  C:369AH         LINE#         185
  C:369FH         LINE#         186
  -------         ENDPROC       _WRITEDATATOONEPAGE
  -------         ENDMOD        EEPROM

  -------         MODULE        LCD
  C:0000H         SYMBOL        _ICE_DUMMY_
  C:6EA6H         PUBLIC        LCD_Enable
  D:0080H         PUBLIC        P0
  D:0090H         PUBLIC        P1
  D:00A0H         PUBLIC        P2
  D:00B0H         PUBLIC        P3
  D:00D8H         PUBLIC        P4
  C:003EH         PUBLIC        _LCD_Current_Mode
  B:00A8H.7       PUBLIC        EA
  C:6B58H         PUBLIC        _LCD_SetOnePixel
  D:00A8H         PUBLIC        IE
  D:00C7H         PUBLIC        TA
  D:00B8H         PUBLIC        IP
  C:6C28H         PUBLIC        _LCD_PowerDown_Display
  C:6E58H         PUBLIC        _LCD_Blink
  D:00FCH         PUBLIC        LCDDAT
  D:00FAH         PUBLIC        LCDCLK
  D:0098H         PUBLIC        SCON
  D:0088H         PUBLIC        TCON
  C:6B04H         PUBLIC        _LCD_Interrupt_Initial
  D:00F5H         PUBLIC        LCDCPALCT0
  D:00E9H         PUBLIC        LCDCPALCT1
  D:0091H         PUBLIC        SFRS
  C:6611H         PUBLIC        _LCD_Open
  D:00FBH         PUBLIC        LCDPTR
  D:00FDH         PUBLIC        LCDPWR
  D:00C0H         PUBLIC        I2C0CON
  D:00E8H         PUBLIC        I2C1CON
  D:00F1H         PUBLIC        LCDCPUMP
  D:00FEH         PUBLIC        LCDBL
  D:00F9H         PUBLIC        LCDCON0
  D:00F8H         PUBLIC        S1CON
  D:00F4H         PUBLIC        LCDCON1
  C:6BE8H         PUBLIC        _LCD_Clock_Setting
  D:00C8H         PUBLIC        T2CON
  C:6F1CH         PUBLIC        LCD_Disable
  C:6C08H         PUBLIC        _LCD_SetAllPixels
  D:00FFH         PUBLIC        LCDMODE
  D:00D0H         PUBLIC        PSW
  -------         PROC          _LCD_OPEN
  X:06F2H         SYMBOL        u8LCDPowerType
  X:06F3H         SYMBOL        u8LCDVSource
  X:06F4H         SYMBOL        u8DrivingVol
  X:06F5H         SYMBOL        u8BiasLevel
  X:06F6H         SYMBOL        u8ComNum
  C:6611H         LINE#         28
  C:661CH         LINE#         29
  C:661CH         LINE#         30
  C:661FH         LINE#         31
  C:6622H         LINE#         33
BL51 BANKED LINKER/LOCATER V6.22.2.0                                                  10/31/2022  08:45:44  PAGE 41


  C:6627H         LINE#         35
  C:6631H         LINE#         36
  C:6631H         LINE#         37
  C:6639H         LINE#         38
  C:663FH         LINE#         39
  C:663FH         LINE#         41
  C:6648H         LINE#         42
  C:664FH         LINE#         43
  C:6655H         LINE#         44
  C:665BH         LINE#         46
  -------         ENDPROC       _LCD_OPEN
  -------         PROC          _LCD_CURRENT_MODE
  D:0007H         SYMBOL        u8LCDCurrentSel
  D:0005H         SYMBOL        u8LCDPSSel
  C:003EH         LINE#         60
  C:003EH         LINE#         61
  C:003EH         LINE#         62
  C:0041H         LINE#         63
  C:0046H         LINE#         64
  C:0059H         LINE#         65
  C:0059H         LINE#         66
  C:0059H         LINE#         67
  C:0059H         LINE#         68
  C:005EH         LINE#         69
  C:005EH         LINE#         70
  C:0061H         LINE#         71
  C:0077H         LINE#         72
  C:0077H         LINE#         73
  C:0077H         LINE#         74
  C:007AH         LINE#         75
  C:007AH         LINE#         77
  -------         ENDPROC       _LCD_CURRENT_MODE
  -------         PROC          _LCD_CLOCK_SETTING
  D:0007H         SYMBOL        u8LCDCLKSource
  D:0005H         SYMBOL        u8LCDCLKDiv
  C:6BE8H         LINE#         87
  C:6BE8H         LINE#         88
  C:6BE8H         LINE#         89
  C:6BEBH         LINE#         90
  C:6BF3H         LINE#         91
  C:6BF3H         LINE#         92
  C:6BFBH         LINE#         93
  C:6C01H         LINE#         94
  C:6C01H         LINE#         95
  C:6C07H         LINE#         97
  -------         ENDPROC       _LCD_CLOCK_SETTING
  -------         PROC          _LCD_BLINK
  D:0007H         SYMBOL        u8LCDBKStatus
  D:0005H         SYMBOL        u8LCDBKFEQ
  C:6E58H         LINE#         110
  C:6E58H         LINE#         111
  C:6E58H         LINE#         112
  C:6E5BH         LINE#         113
  C:6E5EH         LINE#         114
  C:6E66H         LINE#         115
  -------         ENDPROC       _LCD_BLINK
  -------         PROC          _LCD_INTERRUPT_INITIAL
BL51 BANKED LINKER/LOCATER V6.22.2.0                                                  10/31/2022  08:45:44  PAGE 42


  D:0007H         SYMBOL        u8lcdIntStatus
  D:0005H         SYMBOL        u8lcdIntSel
  D:0002H         SYMBOL        u8lcdAlmValue
  -------         DO            
  D:0006H         SYMBOL        datatemp
  -------         ENDDO         
  C:6B04H         LINE#         124
  C:6B04H         LINE#         125
  C:6B04H         LINE#         127
  C:6B07H         LINE#         128
  C:6B0FH         LINE#         129
  C:6B17H         LINE#         130
  C:6B19H         LINE#         131
  C:6B21H         LINE#         132
  C:6B23H         LINE#         133
  C:6B2BH         LINE#         134
  C:6B2EH         LINE#         135
  -------         ENDPROC       _LCD_INTERRUPT_INITIAL
  -------         PROC          _LCD_SETALLPIXELS
  D:0007H         SYMBOL        u8OnOff
  -------         DO            
  D:0006H         SYMBOL        u8SetValue
  D:0007H         SYMBOL        i
  -------         ENDDO         
  C:6C08H         LINE#         143
  C:6C08H         LINE#         144
  C:6C08H         LINE#         147
  C:6C0BH         LINE#         149
  C:6C0FH         LINE#         151
  C:6C11H         LINE#         153
  C:6C14H         LINE#         154
  C:6C20H         LINE#         155
  C:6C20H         LINE#         156
  C:6C22H         LINE#         157
  C:6C24H         LINE#         158
  C:6C27H         LINE#         160
  -------         ENDPROC       _LCD_SETALLPIXELS
  -------         PROC          _LCD_POWERDOWN_DISPLAY
  D:0007H         SYMBOL        u8LCDDisplay
  C:6C28H         LINE#         168
  C:6C28H         LINE#         169
  C:6C28H         LINE#         170
  C:6C36H         LINE#         171
  C:6C36H         LINE#         172
  C:6C36H         LINE#         173
  C:6C3EH         LINE#         174
  C:6C3EH         LINE#         175
  C:6C44H         LINE#         177
  C:6C47H         LINE#         178
  -------         ENDPROC       _LCD_POWERDOWN_DISPLAY
  -------         PROC          _LCD_SETONEPIXEL
  D:0007H         SYMBOL        u8LCDCOM
  D:0005H         SYMBOL        u8LCDSEG
  D:0003H         SYMBOL        u8OnOff
  C:6B58H         LINE#         189
  C:6B58H         LINE#         190
  C:6B58H         LINE#         191
BL51 BANKED LINKER/LOCATER V6.22.2.0                                                  10/31/2022  08:45:44  PAGE 43


  C:6B5BH         LINE#         192
  C:6B5FH         LINE#         193
  C:6B62H         LINE#         194
  C:6B70H         LINE#         196
  C:6B7EH         LINE#         198
  -------         ENDPROC       _LCD_SETONEPIXEL
  -------         PROC          LCD_ENABLE
  C:6EA6H         LINE#         201
  C:6EA6H         LINE#         202
  C:6EA6H         LINE#         203
  C:6EAFH         LINE#         204
  -------         ENDPROC       LCD_ENABLE
  -------         PROC          LCD_DISABLE
  C:6F1CH         LINE#         206
  C:6F1CH         LINE#         207
  C:6F1CH         LINE#         208
  C:6F22H         LINE#         209
  -------         ENDPROC       LCD_DISABLE
  -------         ENDMOD        LCD

  -------         MODULE        SYS
  C:0000H         SYMBOL        _ICE_DUMMY_
  D:0080H         PUBLIC        P0
  D:0090H         PUBLIC        P1
  D:00A0H         PUBLIC        P2
  D:00B0H         PUBLIC        P3
  D:00D8H         PUBLIC        P4
  B:00A8H.7       PUBLIC        EA
  C:4AD7H         PUBLIC        _FsysSelect
  D:00A8H         PUBLIC        IE
  D:0096H         PUBLIC        CKSWT
  C:6D79H         PUBLIC        SW_Reset
  D:00C7H         PUBLIC        TA
  D:00B8H         PUBLIC        IP
  D:0097H         PUBLIC        CKEN
  C:5ACCH         PUBLIC        _ClockDisable
  C:621CH         PUBLIC        FsysSwitchError
  D:0098H         PUBLIC        SCON
  D:0088H         PUBLIC        TCON
  C:5316H         PUBLIC        _ClockEnable
  D:009FH         PUBLIC        CHPCON
  D:0091H         PUBLIC        SFRS
  D:00C0H         PUBLIC        I2C0CON
  D:00E8H         PUBLIC        I2C1CON
  D:00F8H         PUBLIC        S1CON
  C:64D3H         PUBLIC        _ClockSwitch
  D:00C8H         PUBLIC        T2CON
  D:00D0H         PUBLIC        PSW
  -------         PROC          FSYSSWITCHERROR
  C:621CH         LINE#         14
  C:621CH         LINE#         15
  C:621CH         LINE#         16
  C:6232H         LINE#         17
  C:6238H         LINE#         18
  C:624EH         LINE#         19
  C:6263H         LINE#         20
  C:6276H         LINE#         21
BL51 BANKED LINKER/LOCATER V6.22.2.0                                                  10/31/2022  08:45:44  PAGE 44


  C:6277H         LINE#         22
  -------         ENDPROC       FSYSSWITCHERROR
  -------         PROC          _FSYSSELECT
  D:0007H         SYMBOL        u8FsysMode
  C:4AD7H         LINE#         37
  C:4AD7H         LINE#         38
  C:4AD7H         LINE#         39
  C:4AF1H         LINE#         40
  C:4AF1H         LINE#         42
  C:4AF1H         LINE#         43
  C:4AF6H         LINE#         44
  C:4AFBH         LINE#         45
  C:4B00H         LINE#         46
  C:4B05H         LINE#         47
  C:4B0DH         LINE#         48
  C:4B10H         LINE#         49
  C:4B26H         LINE#         51
  C:4B27H         LINE#         53
  C:4B27H         LINE#         54
  C:4B2CH         LINE#         55
  C:4B31H         LINE#         56
  C:4B36H         LINE#         57
  C:4B3BH         LINE#         58
  C:4B46H         LINE#         59
  C:4B49H         LINE#         62
  C:4B4AH         LINE#         65
  C:4B4AH         LINE#         66
  C:4B4FH         LINE#         67
  C:4B54H         LINE#         68
  C:4B6AH         LINE#         69
  C:4B6BH         LINE#         72
  C:4B6BH         LINE#         75
  C:4B70H         LINE#         76
  C:4B75H         LINE#         77
  C:4B7DH         LINE#         78
  C:4B80H         LINE#         79
  C:4B96H         LINE#         82
  C:4BABH         LINE#         85
  C:4BACH         LINE#         88
  C:4BACH         LINE#         89
  C:4BB1H         LINE#         90
  C:4BB6H         LINE#         91
  C:4BBBH         LINE#         92
  C:4BC0H         LINE#         93
  C:4BC8H         LINE#         94
  C:4BCBH         LINE#         95
  C:4BE1H         LINE#         96
  C:4BF6H         LINE#         97
  C:4BF6H         LINE#         98
  C:4BF6H         LINE#         99
  -------         ENDPROC       _FSYSSELECT
  -------         PROC          _CLOCKENABLE
  D:0007H         SYMBOL        u8FsysMode
  C:5316H         LINE#         101
  C:5316H         LINE#         102
  C:5316H         LINE#         103
  C:532DH         LINE#         104
BL51 BANKED LINKER/LOCATER V6.22.2.0                                                  10/31/2022  08:45:44  PAGE 45


  C:532DH         LINE#         106
  C:532DH         LINE#         107
  C:5343H         LINE#         108
  C:5350H         LINE#         109
  C:5351H         LINE#         111
  C:5351H         LINE#         112
  C:5367H         LINE#         113
  C:5371H         LINE#         114
  C:5372H         LINE#         116
  C:5372H         LINE#         117
  C:5388H         LINE#         118
  C:5392H         LINE#         119
  C:5393H         LINE#         121
  C:5393H         LINE#         122
  C:53A9H         LINE#         123
  C:53B3H         LINE#         124
  C:53B4H         LINE#         126
  C:53B4H         LINE#         127
  C:53CAH         LINE#         128
  C:53D2H         LINE#         129
  C:53D2H         LINE#         130
  C:53D2H         LINE#         131
  -------         ENDPROC       _CLOCKENABLE
  -------         PROC          _CLOCKDISABLE
  D:0007H         SYMBOL        u8FsysMode
  C:5ACCH         LINE#         133
  C:5ACCH         LINE#         134
  C:5ACCH         LINE#         135
  C:5ADDH         LINE#         136
  C:5ADDH         LINE#         138
  C:5ADDH         LINE#         139
  C:5AF3H         LINE#         140
  C:5AF4H         LINE#         142
  C:5AF4H         LINE#         143
  C:5B0AH         LINE#         144
  C:5B0BH         LINE#         146
  C:5B0BH         LINE#         147
  C:5B21H         LINE#         148
  C:5B22H         LINE#         150
  C:5B22H         LINE#         151
  C:5B38H         LINE#         152
  C:5B39H         LINE#         154
  C:5B39H         LINE#         155
  C:5B4FH         LINE#         156
  C:5B4FH         LINE#         157
  C:5B4FH         LINE#         158
  -------         ENDPROC       _CLOCKDISABLE
  -------         PROC          _CLOCKSWITCH
  D:0007H         SYMBOL        u8FsysMode
  C:64D3H         LINE#         160
  C:64D3H         LINE#         161
  C:64D3H         LINE#         162
  C:64D9H         LINE#         163
  C:64EAH         LINE#         164
  C:64EAH         LINE#         166
  C:64EAH         LINE#         167
  C:64F3H         LINE#         168
BL51 BANKED LINKER/LOCATER V6.22.2.0                                                  10/31/2022  08:45:44  PAGE 46


  C:64F5H         LINE#         170
  C:64F5H         LINE#         171
  C:64FEH         LINE#         172
  C:6500H         LINE#         174
  C:6500H         LINE#         175
  C:6509H         LINE#         176
  C:650BH         LINE#         178
  C:650BH         LINE#         179
  C:6514H         LINE#         180
  C:6516H         LINE#         182
  C:6516H         LINE#         183
  C:651FH         LINE#         184
  C:651FH         LINE#         185
  C:651FH         LINE#         186
  C:6523H         LINE#         187
  -------         ENDPROC       _CLOCKSWITCH
  -------         PROC          SW_RESET
  C:6D79H         LINE#         193
  C:6D79H         LINE#         194
  C:6D79H         LINE#         195
  C:6D8FH         LINE#         196
  -------         ENDPROC       SW_RESET
  -------         ENDMOD        SYS

  -------         MODULE        ?C_STARTUP
  C:588AH         SEGMENT       ?C_C51STARTUP
  I:0021H         SEGMENT       ?STACK
  C:0000H         PUBLIC        ?C_STARTUP
  D:00E0H         SYMBOL        ACC
  D:00F0H         SYMBOL        B
  D:0083H         SYMBOL        DPH
  D:0082H         SYMBOL        DPL
  N:0000H         SYMBOL        IBPSTACK
  N:0100H         SYMBOL        IBPSTACKTOP
  N:0080H         SYMBOL        IDATALEN
  C:588DH         SYMBOL        IDATALOOP
  N:0000H         SYMBOL        PBPSTACK
  N:0000H         SYMBOL        PBPSTACKTOP
  N:0000H         SYMBOL        PDATALEN
  N:0000H         SYMBOL        PDATASTART
  N:0000H         SYMBOL        PPAGE
  N:0000H         SYMBOL        PPAGEENABLE
  D:00A0H         SYMBOL        PPAGE_SFR
  D:0081H         SYMBOL        SP
  C:588AH         SYMBOL        STARTUP1
  N:0000H         SYMBOL        XBPSTACK
  N:0000H         SYMBOL        XBPSTACKTOP
  N:0FFFH         SYMBOL        XDATALEN
  C:5898H         SYMBOL        XDATALOOP
  N:0000H         SYMBOL        XDATASTART
  C:0000H         LINE#         94
  C:588AH         LINE#         101
  C:588CH         LINE#         102
  C:588DH         LINE#         103
  C:588EH         LINE#         104
  C:5890H         LINE#         108
  C:5893H         LINE#         109
BL51 BANKED LINKER/LOCATER V6.22.2.0                                                  10/31/2022  08:45:44  PAGE 47


  C:5895H         LINE#         111
  C:5897H         LINE#         115
  C:5898H         LINE#         116
  C:5899H         LINE#         117
  C:589AH         LINE#         118
  C:589CH         LINE#         119
  C:589EH         LINE#         153
  C:58A1H         LINE#         157
  -------         ENDMOD        ?C_STARTUP

  -------         MODULE        ADC_USER
  C:0000H         SYMBOL        _ICE_DUMMY_
  D:00F4H         PUBLIC        P2MF54
  D:0080H         PUBLIC        P0
  D:00B5H         PUBLIC        P2M1
  D:0090H         PUBLIC        P1
  D:00B6H         PUBLIC        P2M2
  D:00A0H         PUBLIC        P2
  D:00B0H         PUBLIC        P3
  D:00D8H         PUBLIC        P4
  D:00B1H         PUBLIC        P5
  D:00A8H         PUBLIC        IE
  X:04C5H         PUBLIC        NTC_ADCValue
  C:1989H         PUBLIC        _Get_Temp_Bat
  D:00B8H         PUBLIC        IP
  C:4D0AH         PUBLIC        _ADC_RUN
  X:0567H         PUBLIC        ADC_Data
  D:00CEH         PUBLIC        AINDIDS0
  D:0098H         PUBLIC        SCON
  D:0088H         PUBLIC        TCON
  B:00A0H.4       PUBLIC        P24
  D:0091H         PUBLIC        SFRS
  C:6036H         PUBLIC        ADC_Init
  C:5E8EH         PUBLIC        Get_NtcValu
  D:00C0H         PUBLIC        I2C0CON
  D:00E8H         PUBLIC        I2C1CON
  D:00A1H         PUBLIC        ADCCON0
  D:00E1H         PUBLIC        ADCCON1
  C:6EB0H         PUBLIC        Get_NTC_Init
  C:6BA4H         PUBLIC        Get_NTC_Temp
  D:00C3H         PUBLIC        ADCRH
  C:12D9H         PUBLIC        Bat_PowerDisplay
  D:00F8H         PUBLIC        S1CON
  D:00C8H         PUBLIC        T2CON
  D:00C2H         PUBLIC        ADCRL
  D:00F2H         PUBLIC        P2MF10
  D:00D0H         PUBLIC        PSW
  -------         PROC          ADC_INIT
  C:6036H         LINE#         58
  C:6036H         LINE#         59
  C:6036H         LINE#         60
  C:605CH         LINE#         61
  C:6064H         LINE#         62
  C:606BH         LINE#         63
  C:6074H         LINE#         64
  C:607AH         LINE#         65
  C:6083H         LINE#         66
BL51 BANKED LINKER/LOCATER V6.22.2.0                                                  10/31/2022  08:45:44  PAGE 48


  C:608CH         LINE#         68
  C:6092H         LINE#         69
  C:6097H         LINE#         70
  C:609CH         LINE#         71
  -------         ENDPROC       ADC_INIT
  -------         PROC          GET_NTCVALU
  -------         DO            
  X:0731H         SYMBOL        ADCdataAIN
  D:0004H         SYMBOL        Ntc_valu
  -------         ENDDO         
  C:5E8EH         LINE#         73
  C:5E8EH         LINE#         74
  C:5E8EH         LINE#         77
  C:5E94H         LINE#         78
  C:5E99H         LINE#         79
  C:5E9EH         LINE#         80
  C:5EBBH         LINE#         81
  C:5EDBH         LINE#         82
  C:5EE1H         LINE#         83
  C:5EEFH         LINE#         84
  C:5EF5H         LINE#         85
  C:5EFAH         LINE#         86
  C:5EFAH         LINE#         87
  -------         ENDPROC       GET_NTCVALU
  -------         PROC          _ADC_RUN
  D:0007H         SYMBOL        Channel
  -------         DO            
  X:06F4H         SYMBOL        ADCdataAIN
  -------         ENDDO         
  C:4D0AH         LINE#         89
  C:4D0AH         LINE#         90
  C:4D0AH         LINE#         92
  C:4D12H         LINE#         93
  C:4D12H         LINE#         94
  C:4D37H         LINE#         95
  C:4D3CH         LINE#         96
  C:4D41H         LINE#         97
  C:4D46H         LINE#         98
  C:4D63H         LINE#         99
  C:4D83H         LINE#         100
  C:4D89H         LINE#         101
  C:4D8FH         LINE#         102
  C:4D94H         LINE#         103
  C:4D95H         LINE#         104
  C:4D9BH         LINE#         105
  C:4D9BH         LINE#         106
  C:4DBDH         LINE#         107
  C:4DC2H         LINE#         108
  C:4DC7H         LINE#         109
  C:4DCCH         LINE#         110
  C:4DE9H         LINE#         111
  C:4E09H         LINE#         112
  C:4E0FH         LINE#         113
  C:4E15H         LINE#         114
  C:4E1AH         LINE#         115
  C:4E1AH         LINE#         117
  -------         ENDPROC       _ADC_RUN
BL51 BANKED LINKER/LOCATER V6.22.2.0                                                  10/31/2022  08:45:44  PAGE 49


  -------         PROC          _GET_TEMP_BAT
  D:0007H         SYMBOL        Channel
  -------         DO            
  X:06F2H         SYMBOL        i
  -------         DO            
  X:06F3H         SYMBOL        i
  -------         ENDDO         
  -------         ENDDO         
  C:1989H         LINE#         119
  C:1989H         LINE#         120
  C:1989H         LINE#         122
  C:1996H         LINE#         123
  C:1996H         LINE#         124
  C:1996H         LINE#         125
  C:1996H         LINE#         126
  C:199BH         LINE#         127
  C:19ABH         LINE#         128
  C:19ABH         LINE#         129
  C:19ADH         LINE#         130
  C:19BCH         LINE#         131
  C:19CBH         LINE#         132
  C:19D0H         LINE#         133
  C:19E3H         LINE#         134
  C:19E3H         LINE#         135
  C:1A01H         LINE#         136
  C:1A06H         LINE#         137
  C:1A27H         LINE#         138
  C:1A2CH         LINE#         139
  C:1A34H         LINE#         140
  C:1A47H         LINE#         141
  C:1A47H         LINE#         142
  C:1A64H         LINE#         143
  C:1A6CH         LINE#         144
  C:1A94H         LINE#         145
  C:1AAEH         LINE#         146
  C:1AB4H         LINE#         147
  C:1AFDH         LINE#         148
  C:1B03H         LINE#         149
  C:1B19H         LINE#         150
  C:1B19H         LINE#         151
  C:1B5AH         LINE#         152
  C:1B5AH         LINE#         153
  C:1B63H         LINE#         154
  C:1B63H         LINE#         155
  C:1BC5H         LINE#         157
  C:1BC7H         LINE#         159
  C:1BC7H         LINE#         160
  C:1C2FH         LINE#         161
  C:1C34H         LINE#         162
  C:1C36H         LINE#         164
  C:1C36H         LINE#         165
  C:1C36H         LINE#         166
  C:1C3FH         LINE#         167
  C:1C3FH         LINE#         168
  C:1C3FH         LINE#         169
  C:1C3FH         LINE#         170
  C:1C3FH         LINE#         171
BL51 BANKED LINKER/LOCATER V6.22.2.0                                                  10/31/2022  08:45:44  PAGE 50


  C:1C3FH         LINE#         173
  C:1C44H         LINE#         174
  C:1C54H         LINE#         175
  C:1C54H         LINE#         176
  C:1C56H         LINE#         177
  C:1C65H         LINE#         178
  C:1C74H         LINE#         179
  C:1C7CH         LINE#         180
  C:1C90H         LINE#         181
  C:1C90H         LINE#         182
  C:1CAEH         LINE#         183
  C:1CB3H         LINE#         184
  C:1CD4H         LINE#         185
  C:1CD9H         LINE#         186
  C:1CE1H         LINE#         187
  C:1CF3H         LINE#         188
  C:1CF3H         LINE#         189
  C:1D2AH         LINE#         190
  C:1D32H         LINE#         191
  C:1D80H         LINE#         192
  C:1D99H         LINE#         194
  C:1DE8H         LINE#         195
  C:1DFBH         LINE#         196
  C:1E24H         LINE#         199
  C:1E24H         LINE#         200
  C:1E24H         LINE#         203
  C:1E24H         LINE#         206
  C:1E24H         LINE#         210
  -------         ENDPROC       _GET_TEMP_BAT
  -------         PROC          BAT_POWERDISPLAY
  -------         DO            
  X:04C3H         SYMBOL        lowpowertime
  -------         DO            
  X:04BEH         SYMBOL        Pecent80Flag
  X:04BFH         SYMBOL        Pecent60Flag
  X:04C0H         SYMBOL        Pecent40Flag
  X:04C1H         SYMBOL        Pecent20Flag
  X:04C2H         SYMBOL        Pecent0Flag
  -------         ENDDO         
  -------         ENDDO         
  C:12D9H         LINE#         212
  C:12D9H         LINE#         213
  C:12D9H         LINE#         215
  C:12DFH         LINE#         216
  C:12DFH         LINE#         217
  C:12E8H         LINE#         218
  C:12F1H         LINE#         219
  C:1300H         LINE#         220
  C:1300H         LINE#         221
  C:1306H         LINE#         222
  C:130EH         LINE#         223
  C:1317H         LINE#         224
  C:1320H         LINE#         225
  C:1329H         LINE#         227
  C:132CH         LINE#         229
  C:135DH         LINE#         230
  C:135DH         LINE#         231
BL51 BANKED LINKER/LOCATER V6.22.2.0                                                  10/31/2022  08:45:44  PAGE 51


  C:136BH         LINE#         232
  C:1377H         LINE#         233
  C:1377H         LINE#         234
  C:137FH         LINE#         235
  C:1388H         LINE#         236
  C:1391H         LINE#         237
  C:139AH         LINE#         238
  C:139DH         LINE#         239
  C:13A9H         LINE#         240
  C:13A9H         LINE#         241
  C:13B1H         LINE#         242
  C:13BAH         LINE#         243
  C:13C3H         LINE#         244
  C:13CCH         LINE#         245
  C:13CEH         LINE#         246
  C:13DAH         LINE#         247
  C:13DAH         LINE#         248
  C:13E2H         LINE#         249
  C:13EBH         LINE#         250
  C:13F4H         LINE#         251
  C:13FDH         LINE#         252
  C:13FFH         LINE#         254
  C:13FFH         LINE#         255
  C:1408H         LINE#         256
  C:1411H         LINE#         257
  C:141AH         LINE#         258
  C:1422H         LINE#         259
  C:1429H         LINE#         260
  C:1429H         LINE#         261
  C:1429H         LINE#         262
  C:1439H         LINE#         263
  C:1439H         LINE#         264
  C:143EH         LINE#         265
  C:143FH         LINE#         266
  C:1448H         LINE#         267
  C:1448H         LINE#         268
  C:144EH         LINE#         269
  C:144FH         LINE#         270
  C:1458H         LINE#         271
  C:1458H         LINE#         272
  C:145EH         LINE#         273
  C:145FH         LINE#         274
  C:1468H         LINE#         275
  C:1468H         LINE#         276
  C:146EH         LINE#         277
  C:146FH         LINE#         278
  C:1478H         LINE#         279
  C:1478H         LINE#         280
  C:147EH         LINE#         281
  C:147FH         LINE#         283
  C:147FH         LINE#         284
  C:1485H         LINE#         285
  C:1485H         LINE#         286
  C:1486H         LINE#         287
  C:148CH         LINE#         288
  C:148CH         LINE#         294
  C:1491H         LINE#         295
BL51 BANKED LINKER/LOCATER V6.22.2.0                                                  10/31/2022  08:45:44  PAGE 52


  C:1499H         LINE#         298
  C:14ABH         LINE#         299
  C:14ABH         LINE#         300
  C:14B1H         LINE#         301
  C:14B1H         LINE#         302
  C:14B7H         LINE#         303
  C:14C0H         LINE#         304
  C:14C9H         LINE#         305
  C:14D2H         LINE#         306
  C:14DBH         LINE#         307
  C:14E4H         LINE#         308
  C:14E5H         LINE#         309
  C:14FCH         LINE#         310
  C:14FCH         LINE#         311
  C:1502H         LINE#         312
  C:150BH         LINE#         313
  C:1514H         LINE#         314
  C:151DH         LINE#         315
  C:1526H         LINE#         316
  C:152FH         LINE#         317
  C:1534H         LINE#         318
  C:1536H         LINE#         319
  C:1538H         LINE#         320
  C:153AH         LINE#         321
  C:153CH         LINE#         322
  C:153DH         LINE#         324
  C:153DH         LINE#         325
  C:1543H         LINE#         326
  C:154CH         LINE#         327
  C:1555H         LINE#         328
  C:155EH         LINE#         329
  C:1567H         LINE#         330
  C:1570H         LINE#         331
  C:1570H         LINE#         333
  C:1571H         LINE#         334
  C:1583H         LINE#         335
  C:1583H         LINE#         336
  C:1589H         LINE#         337
  C:158DH         LINE#         338
  C:158DH         LINE#         339
  C:1593H         LINE#         340
  C:159CH         LINE#         341
  C:15A5H         LINE#         342
  C:15AEH         LINE#         343
  C:15B7H         LINE#         344
  C:15C0H         LINE#         345
  C:15C1H         LINE#         346
  C:15D8H         LINE#         347
  C:15D8H         LINE#         348
  C:15DEH         LINE#         349
  C:15E7H         LINE#         350
  C:15F0H         LINE#         351
  C:15F9H         LINE#         352
  C:1602H         LINE#         353
  C:160BH         LINE#         355
  C:1610H         LINE#         356
  C:1612H         LINE#         357
BL51 BANKED LINKER/LOCATER V6.22.2.0                                                  10/31/2022  08:45:44  PAGE 53


  C:1614H         LINE#         358
  C:1616H         LINE#         359
  C:1617H         LINE#         361
  C:1617H         LINE#         362
  C:161DH         LINE#         363
  C:1626H         LINE#         364
  C:162FH         LINE#         365
  C:1638H         LINE#         366
  C:1641H         LINE#         367
  C:164AH         LINE#         368
  C:164AH         LINE#         370
  C:164BH         LINE#         371
  C:165DH         LINE#         372
  C:165DH         LINE#         373
  C:1663H         LINE#         374
  C:1667H         LINE#         375
  C:1667H         LINE#         376
  C:166DH         LINE#         377
  C:1676H         LINE#         378
  C:167FH         LINE#         379
  C:1688H         LINE#         380
  C:1691H         LINE#         381
  C:169AH         LINE#         382
  C:169BH         LINE#         383
  C:16B2H         LINE#         384
  C:16B2H         LINE#         385
  C:16B8H         LINE#         386
  C:16C1H         LINE#         387
  C:16CAH         LINE#         388
  C:16D3H         LINE#         389
  C:16DCH         LINE#         390
  C:16E5H         LINE#         391
  C:16EAH         LINE#         392
  C:16ECH         LINE#         393
  C:16EEH         LINE#         394
  C:16EFH         LINE#         396
  C:16EFH         LINE#         397
  C:16F5H         LINE#         398
  C:16FEH         LINE#         399
  C:1707H         LINE#         400
  C:1710H         LINE#         401
  C:1719H         LINE#         402
  C:1721H         LINE#         403
  C:1721H         LINE#         405
  C:1722H         LINE#         406
  C:1734H         LINE#         407
  C:1734H         LINE#         408
  C:173AH         LINE#         409
  C:173EH         LINE#         410
  C:173EH         LINE#         411
  C:1744H         LINE#         412
  C:174DH         LINE#         413
  C:1756H         LINE#         414
  C:175FH         LINE#         415
  C:1768H         LINE#         416
  C:1770H         LINE#         417
  C:1771H         LINE#         418
BL51 BANKED LINKER/LOCATER V6.22.2.0                                                  10/31/2022  08:45:44  PAGE 54


  C:1788H         LINE#         419
  C:1788H         LINE#         420
  C:178EH         LINE#         421
  C:1797H         LINE#         422
  C:17A0H         LINE#         423
  C:17A9H         LINE#         424
  C:17B2H         LINE#         425
  C:17BAH         LINE#         426
  C:17BFH         LINE#         427
  C:17C1H         LINE#         428
  C:17C2H         LINE#         430
  C:17C2H         LINE#         431
  C:17C8H         LINE#         432
  C:17D0H         LINE#         433
  C:17D9H         LINE#         434
  C:17E2H         LINE#         435
  C:17EBH         LINE#         436
  C:17F3H         LINE#         437
  C:17F3H         LINE#         439
  C:17F4H         LINE#         440
  C:1806H         LINE#         441
  C:1806H         LINE#         442
  C:180CH         LINE#         443
  C:1810H         LINE#         444
  C:1810H         LINE#         445
  C:1816H         LINE#         446
  C:181EH         LINE#         447
  C:1827H         LINE#         448
  C:1830H         LINE#         449
  C:1839H         LINE#         450
  C:1841H         LINE#         451
  C:1842H         LINE#         452
  C:1859H         LINE#         453
  C:1859H         LINE#         454
  C:185FH         LINE#         455
  C:1867H         LINE#         456
  C:1870H         LINE#         457
  C:1879H         LINE#         458
  C:1882H         LINE#         459
  C:188AH         LINE#         460
  C:188FH         LINE#         461
  C:1890H         LINE#         463
  C:1890H         LINE#         464
  C:189EH         LINE#         465
  C:18A3H         LINE#         466
  C:18AAH         LINE#         467
  C:18B3H         LINE#         469
  C:18BCH         LINE#         470
  C:18C4H         LINE#         471
  C:18D0H         LINE#         472
  C:18D0H         LINE#         473
  C:18D9H         LINE#         474
  C:18E2H         LINE#         475
  C:18E3H         LINE#         476
  C:18F2H         LINE#         477
  C:18F2H         LINE#         478
  C:18FAH         LINE#         479
BL51 BANKED LINKER/LOCATER V6.22.2.0                                                  10/31/2022  08:45:44  PAGE 55


  C:1903H         LINE#         480
  C:190AH         LINE#         481
  C:190AH         LINE#         482
  C:190AH         LINE#         483
  C:190BH         LINE#         485
  C:190BH         LINE#         486
  C:1911H         LINE#         487
  C:191FH         LINE#         488
  C:1924H         LINE#         489
  C:192BH         LINE#         490
  C:1934H         LINE#         492
  C:193DH         LINE#         493
  C:1945H         LINE#         494
  C:1951H         LINE#         495
  C:1951H         LINE#         496
  C:195AH         LINE#         497
  C:1963H         LINE#         498
  C:1964H         LINE#         499
  C:1970H         LINE#         500
  C:1970H         LINE#         501
  C:1978H         LINE#         502
  C:1981H         LINE#         503
  C:1988H         LINE#         504
  C:1988H         LINE#         506
  C:1988H         LINE#         507
  C:1988H         LINE#         509
  -------         ENDPROC       BAT_POWERDISPLAY
  -------         PROC          GET_NTC_TEMP
  C:6BA4H         LINE#         511
  C:6BA4H         LINE#         512
  C:6BA4H         LINE#         513
  C:6BACH         LINE#         514
  C:6BACH         LINE#         515
  C:6BB9H         LINE#         516
  C:6BBEH         LINE#         517
  C:6BBEH         LINE#         518
  C:6BC6H         LINE#         519
  -------         ENDPROC       GET_NTC_TEMP
  -------         PROC          GET_NTC_INIT
  C:6EB0H         LINE#         521
  C:6EB0H         LINE#         522
  C:6EB0H         LINE#         523
  C:6EB8H         LINE#         525
  -------         ENDPROC       GET_NTC_INIT
  -------         ENDMOD        ADC_USER

  -------         MODULE        CO2
  C:0000H         SYMBOL        _ICE_DUMMY_
  D:0080H         PUBLIC        P0
  D:0090H         PUBLIC        P1
  D:00A0H         PUBLIC        P2
  D:00B0H         PUBLIC        P3
  D:00D8H         PUBLIC        P4
  D:00A8H         PUBLIC        IE
  D:00B8H         PUBLIC        IP
  C:5697H         PUBLIC        _Display_Co2
  X:0661H         PUBLIC        CO2_Data
BL51 BANKED LINKER/LOCATER V6.22.2.0                                                  10/31/2022  08:45:44  PAGE 56


  B:00F8H.0       PUBLIC        RI_1
  D:0098H         PUBLIC        SCON
  D:0088H         PUBLIC        TCON
  C:6B7FH         PUBLIC        _Get_Cs
  C:5744H         PUBLIC        UART1_ISR
  D:0091H         PUBLIC        SFRS
  C:6380H         PUBLIC        Get_CO2_VersionNum
  C:5924H         PUBLIC        Recieve_Data_Analysis
  D:00C0H         PUBLIC        I2C0CON
  D:00E8H         PUBLIC        I2C1CON
  C:642DH         PUBLIC        Get_CO2Valu
  D:009AH         PUBLIC        SBUF1
  D:00F8H         PUBLIC        S1CON
  D:00C8H         PUBLIC        T2CON
  C:6EB9H         PUBLIC        Get_Co2Value
  D:00D0H         PUBLIC        PSW
  -------         PROC          GET_CO2VALU
  C:642DH         LINE#         39
  C:642DH         LINE#         40
  C:642DH         LINE#         41
  C:6433H         LINE#         42
  C:6437H         LINE#         43
  C:6439H         LINE#         44
  C:644AH         LINE#         45
  C:6452H         LINE#         46
  C:645AH         LINE#         47
  C:6462H         LINE#         48
  C:646AH         LINE#         49
  C:6480H         LINE#         51
  -------         ENDPROC       GET_CO2VALU
  -------         PROC          GET_CO2_VERSIONNUM
  C:6380H         LINE#         53
  C:6380H         LINE#         54
  C:6380H         LINE#         55
  C:6386H         LINE#         56
  C:638AH         LINE#         57
  C:638EH         LINE#         58
  C:63A0H         LINE#         59
  C:63A8H         LINE#         60
  C:63B0H         LINE#         61
  C:63B8H         LINE#         62
  C:63C0H         LINE#         63
  C:63D6H         LINE#         65
  -------         ENDPROC       GET_CO2_VERSIONNUM
  -------         PROC          UART1_ISR
  C:5744H         LINE#         68
  C:5761H         LINE#         70
  C:5763H         LINE#         71
  C:5766H         LINE#         72
  C:5766H         LINE#         73
  C:576CH         LINE#         74
  C:5772H         LINE#         75
  C:5772H         LINE#         76
  C:577AH         LINE#         77
  C:577AH         LINE#         78
  C:5787H         LINE#         79
  C:578FH         LINE#         80
BL51 BANKED LINKER/LOCATER V6.22.2.0                                                  10/31/2022  08:45:44  PAGE 57


  C:5795H         LINE#         81
  C:5795H         LINE#         83
  C:5797H         LINE#         84
  C:579FH         LINE#         85
  C:579FH         LINE#         86
  C:57A3H         LINE#         87
  C:57B6H         LINE#         88
  C:57CAH         LINE#         89
  C:57CAH         LINE#         90
  C:57D0H         LINE#         91
  C:57D0H         LINE#         92
  C:57D0H         LINE#         94
  C:57D2H         LINE#         95
  C:57D2H         LINE#         96
  C:57D4H         LINE#         97
  -------         ENDPROC       UART1_ISR
  -------         PROC          RECIEVE_DATA_ANALYSIS
  -------         DO            
  X:065FH         SYMBOL        Times
  -------         ENDDO         
  C:5924H         LINE#         99
  C:5924H         LINE#         100
  C:5924H         LINE#         102
  C:592CH         LINE#         103
  C:592CH         LINE#         105
  C:5943H         LINE#         106
  C:5943H         LINE#         107
  C:5955H         LINE#         108
  C:595AH         LINE#         109
  C:596FH         LINE#         110
  C:5974H         LINE#         111
  C:597AH         LINE#         112
  C:597BH         LINE#         114
  C:597BH         LINE#         115
  C:5980H         LINE#         116
  C:5982H         LINE#         117
  C:5988H         LINE#         118
  C:5988H         LINE#         120
  C:5989H         LINE#         121
  C:598FH         LINE#         122
  C:598FH         LINE#         123
  C:599DH         LINE#         124
  C:59ACH         LINE#         125
  C:59ACH         LINE#         126
  C:59B1H         LINE#         127
  C:59B3H         LINE#         128
  C:59B9H         LINE#         129
  C:59B9H         LINE#         131
  C:59B9H         LINE#         134
  -------         ENDPROC       RECIEVE_DATA_ANALYSIS
  -------         PROC          _GET_CS
  D:0001H         SYMBOL        Lens
  -------         DO            
  D:0006H         SYMBOL        Sum
  D:0005H         SYMBOL        i
  D:0004H         SYMBOL        Cs_r
  -------         ENDDO         
BL51 BANKED LINKER/LOCATER V6.22.2.0                                                  10/31/2022  08:45:44  PAGE 58


  C:6B7FH         LINE#         136
  C:6B81H         LINE#         137
  C:6B81H         LINE#         138
  C:6B84H         LINE#         139
  C:6B85H         LINE#         140
  C:6B86H         LINE#         141
  C:6B8BH         LINE#         142
  C:6B8BH         LINE#         143
  C:6B9BH         LINE#         144
  C:6B9EH         LINE#         145
  C:6BA2H         LINE#         146
  C:6BA3H         LINE#         147
  -------         ENDPROC       _GET_CS
  -------         PROC          _DISPLAY_CO2
  X:06FEH         SYMBOL        Dis_Mod
  -------         DO            
  D:0007H         SYMBOL        co2gw
  X:06FFH         SYMBOL        co2sw
  X:0700H         SYMBOL        co2bw
  X:0701H         SYMBOL        co2qw
  X:0702H         SYMBOL        C02Value_Dis
  -------         ENDDO         
  C:5697H         LINE#         149
  C:569CH         LINE#         150
  C:569CH         LINE#         154
  C:56B2H         LINE#         155
  C:56CFH         LINE#         156
  C:56E2H         LINE#         157
  C:56E9H         LINE#         158
  C:56F2H         LINE#         159
  C:570DH         LINE#         160
  C:5728H         LINE#         161
  C:5743H         LINE#         201
  -------         ENDPROC       _DISPLAY_CO2
  -------         PROC          GET_CO2VALUE
  C:6EB9H         LINE#         203
  C:6EB9H         LINE#         204
  C:6EB9H         LINE#         205
  C:6EC1H         LINE#         206
  -------         ENDPROC       GET_CO2VALUE
  -------         ENDMOD        CO2

  -------         MODULE        CRC8_NRSC5
  C:0000H         SYMBOL        _ICE_DUMMY_
  D:0080H         PUBLIC        P0
  D:0090H         PUBLIC        P1
  D:00A0H         PUBLIC        P2
  D:00B0H         PUBLIC        P3
  D:00D8H         PUBLIC        P4
  D:00A8H         PUBLIC        IE
  D:00B8H         PUBLIC        IP
  D:0098H         PUBLIC        SCON
  D:0088H         PUBLIC        TCON
  C:6278H         PUBLIC        _crc8_nrsc5
  D:00C0H         PUBLIC        I2C0CON
  D:00E8H         PUBLIC        I2C1CON
  D:00F8H         PUBLIC        S1CON
BL51 BANKED LINKER/LOCATER V6.22.2.0                                                  10/31/2022  08:45:44  PAGE 59


  D:00C8H         PUBLIC        T2CON
  D:00D0H         PUBLIC        PSW
  -------         PROC          _CRC8_NRSC5
  X:06F7H         SYMBOL        Data
  X:06FAH         SYMBOL        length
  -------         DO            
  D:0007H         SYMBOL        i
  D:0006H         SYMBOL        crc
  -------         ENDDO         
  C:6278H         LINE#         12
  C:6289H         LINE#         13
  C:6289H         LINE#         14
  C:628BH         LINE#         15
  C:628DH         LINE#         16
  C:629BH         LINE#         17
  C:629BH         LINE#         18
  C:62B0H         LINE#         20
  C:62BCH         LINE#         21
  C:62BCH         LINE#         22
  C:62C0H         LINE#         23
  C:62C7H         LINE#         25
  C:62CBH         LINE#         26
  C:62CEH         LINE#         27
  C:62CEH         LINE#         28
  C:62D0H         LINE#         29
  -------         ENDPROC       _CRC8_NRSC5
  -------         ENDMOD        CRC8_NRSC5

  -------         MODULE        EEPROM_USER
  C:0000H         SYMBOL        _ICE_DUMMY_
  D:0080H         PUBLIC        P0
  D:0090H         PUBLIC        P1
  D:00A0H         PUBLIC        P2
  D:00B0H         PUBLIC        P3
  D:00D8H         PUBLIC        P4
  B:00A8H.7       PUBLIC        EA
  D:00A8H         PUBLIC        IE
  D:00C7H         PUBLIC        TA
  C:42EEH         PUBLIC        _EEPROM_Write_SensorData
  D:00B8H         PUBLIC        IP
  D:0098H         PUBLIC        SCON
  D:0088H         PUBLIC        TCON
  D:009FH         PUBLIC        CHPCON
  C:2E8BH         PUBLIC        EEPROM_ReadDataInit
  D:0091H         PUBLIC        SFRS
  D:00A5H         PUBLIC        IAPUEN
  D:00A4H         PUBLIC        IAPTRG
  C:3E63H         PUBLIC        Get_Avg_Valu_24h
  D:00C0H         PUBLIC        I2C0CON
  D:00E8H         PUBLIC        I2C1CON
  C:5CC3H         PUBLIC        Get_Max_Valu_24h
  D:00A7H         PUBLIC        IAPAH
  D:00F8H         PUBLIC        S1CON
  D:00AEH         PUBLIC        IAPFD
  D:00C8H         PUBLIC        T2CON
  D:00A6H         PUBLIC        IAPAL
  D:00AFH         PUBLIC        IAPCN
BL51 BANKED LINKER/LOCATER V6.22.2.0                                                  10/31/2022  08:45:44  PAGE 60


  C:6E82H         PUBLIC        Get_Avg_Valu_CO2_24h
  C:6E75H         PUBLIC        Get_Max_Valu_CO2_24h
  X:0200H         PUBLIC        SensorData
  D:00D0H         PUBLIC        PSW
  C:4874H         PUBLIC        _Write_DATAFLASH
  X:0319H         PUBLIC        page_buffer
  -------         PROC          _WRITE_DATAFLASH
  D:0006H         SYMBOL        u16EPAddr
  D:0001H         SYMBOL        u8EPData
  X:06FAH         SYMBOL        len
  -------         DO            
  D:0005H         SYMBOL        looptmp
  X:06FBH         SYMBOL        u16_addrl_r
  -------         ENDDO         
  C:4874H         LINE#         18
  C:4874H         LINE#         19
  C:4874H         LINE#         20
  C:4876H         LINE#         24
  C:4892H         LINE#         27
  C:489EH         LINE#         28
  C:489EH         LINE#         30
  C:48A3H         LINE#         31
  C:48A3H         LINE#         32
  C:48B3H         LINE#         33
  C:48BAH         LINE#         34
  C:48BCH         LINE#         35
  C:48C8H         LINE#         37
  C:48CBH         LINE#         41
  C:48D4H         LINE#         42
  C:48D7H         LINE#         43
  C:48DAH         LINE#         44
  C:48F0H         LINE#         45
  C:4905H         LINE#         46
  C:4908H         LINE#         47
  C:491DH         LINE#         50
  C:4932H         LINE#         51
  C:4947H         LINE#         52
  C:494AH         LINE#         55
  C:4955H         LINE#         56
  C:4955H         LINE#         57
  C:495DH         LINE#         58
  C:4960H         LINE#         59
  C:496DH         LINE#         60
  C:4983H         LINE#         61
  C:4983H         LINE#         55
  C:4986H         LINE#         63
  C:499CH         LINE#         64
  C:49B1H         LINE#         65
  -------         ENDPROC       _WRITE_DATAFLASH
  -------         PROC          _EEPROM_WRITE_SENSORDATA
  D:0007H         SYMBOL        SaveType
  X:06F2H         SYMBOL        DataType
  -------         DO            
  X:06F3H         SYMBOL        Crc16
  -------         ENDDO         
  C:42EEH         LINE#         67
  C:42F3H         LINE#         68
BL51 BANKED LINKER/LOCATER V6.22.2.0                                                  10/31/2022  08:45:44  PAGE 61


  C:42F3H         LINE#         69
  C:42F9H         LINE#         70
  C:42F9H         LINE#         72
  C:42F9H         LINE#         73
  C:42F9H         LINE#         74
  C:4302H         LINE#         75
  C:4302H         LINE#         76
  C:430BH         LINE#         77
  C:430BH         LINE#         79
  C:430DH         LINE#         80
  C:430FH         LINE#         81
  C:4311H         LINE#         82
  C:4317H         LINE#         83
  C:4317H         LINE#         84
  C:431BH         LINE#         85
  C:431DH         LINE#         86
  C:431DH         LINE#         87
  C:432FH         LINE#         88
  C:4331H         LINE#         89
  C:4344H         LINE#         90
  C:4358H         LINE#         91
  C:436CH         LINE#         92
  C:436CH         LINE#         93
  C:437FH         LINE#         94
  C:437FH         LINE#         95
  C:4381H         LINE#         96
  C:4381H         LINE#         97
  C:438CH         LINE#         98
  C:438CH         LINE#         99
  C:43A3H         LINE#         100
  C:43B8H         LINE#         101
  C:43C0H         LINE#         102
  C:43C8H         LINE#         103
  C:43DBH         LINE#         104
  C:43E8H         LINE#         105
  C:43EBH         LINE#         106
  C:43EDH         LINE#         107
  C:440CH         LINE#         109
  C:442CH         LINE#         110
  C:443FH         LINE#         111
  C:4449H         LINE#         112
  C:4449H         LINE#         113
  C:4468H         LINE#         114
  C:4468H         LINE#         115
  C:446AH         LINE#         116
  C:446AH         LINE#         117
  C:446AH         LINE#         118
  C:446AH         LINE#         119
  C:446AH         LINE#         121
  C:446AH         LINE#         122
  C:446AH         LINE#         124
  C:446AH         LINE#         125
  C:446AH         LINE#         127
  C:446AH         LINE#         128
  C:446AH         LINE#         130
  C:446AH         LINE#         131
  C:446AH         LINE#         132
BL51 BANKED LINKER/LOCATER V6.22.2.0                                                  10/31/2022  08:45:44  PAGE 62


  C:446AH         LINE#         133
  -------         ENDPROC       _EEPROM_WRITE_SENSORDATA
  -------         PROC          EEPROM_READDATAINIT
  -------         DO            
  X:06F2H         SYMBOL        OneCircle_Flag
  X:06F3H         SYMBOL        Save_AddrP
  X:06F4H         SYMBOL        CO2Value_H
  X:06F5H         SYMBOL        CO2Value_L
  X:06F6H         SYMBOL        i
  -------         ENDDO         
  C:2E8BH         LINE#         136
  C:2E8BH         LINE#         137
  C:2E8BH         LINE#         143
  C:2E8DH         LINE#         144
  C:2EA3H         LINE#         145
  C:2EB7H         LINE#         146
  C:2EB7H         LINE#         147
  C:2ECDH         LINE#         148
  C:2EE1H         LINE#         149
  C:2EE1H         LINE#         150
  C:2EE6H         LINE#         151
  C:2EE8H         LINE#         152
  C:2EEAH         LINE#         153
  C:2EECH         LINE#         154
  C:2EEEH         LINE#         155
  C:2EF6H         LINE#         156
  C:2EF8H         LINE#         158
  C:2EF8H         LINE#         159
  C:2F00H         LINE#         160
  C:2F08H         LINE#         161
  C:2F10H         LINE#         162
  C:2F18H         LINE#         163
  C:2F20H         LINE#         164
  C:2F28H         LINE#         165
  C:2F30H         LINE#         166
  C:2F30H         LINE#         168
  C:2F32H         LINE#         170
  C:2F32H         LINE#         171
  C:2F3AH         LINE#         172
  C:2F42H         LINE#         173
  C:2F4AH         LINE#         174
  C:2F52H         LINE#         175
  C:2F5AH         LINE#         176
  C:2F62H         LINE#         177
  C:2F6AH         LINE#         178
  C:2F6AH         LINE#         180
  C:2F8CH         LINE#         181
  C:2F9FH         LINE#         182
  C:2FACH         LINE#         183
  C:2FB5H         LINE#         184
  C:2FC7H         LINE#         186
  C:2FE1H         LINE#         187
  C:2FE1H         LINE#         188
  C:3003H         LINE#         190
  C:3010H         LINE#         191
  C:3019H         LINE#         192
  C:302BH         LINE#         193
BL51 BANKED LINKER/LOCATER V6.22.2.0                                                  10/31/2022  08:45:44  PAGE 63


  C:3042H         LINE#         194
  C:3042H         LINE#         195
  C:3058H         LINE#         196
  C:3058H         LINE#         197
  C:3064H         LINE#         198
  C:306CH         LINE#         199
  C:306CH         LINE#         201
  C:306CH         LINE#         202
  C:307EH         LINE#         203
  C:307EH         LINE#         204
  C:3097H         LINE#         205
  C:309FH         LINE#         206
  C:30A8H         LINE#         207
  C:30B0H         LINE#         208
  C:30C0H         LINE#         209
  C:30CFH         LINE#         210
  C:30D2H         LINE#         211
  C:30DAH         LINE#         212
  C:30DAH         LINE#         213
  C:30DCH         LINE#         215
  C:30DCH         LINE#         216
  C:30EEH         LINE#         217
  C:30EEH         LINE#         218
  C:3107H         LINE#         219
  C:310FH         LINE#         220
  C:3118H         LINE#         221
  C:3120H         LINE#         222
  C:3130H         LINE#         223
  C:313FH         LINE#         224
  C:3142H         LINE#         225
  C:314AH         LINE#         226
  C:314AH         LINE#         227
  C:314CH         LINE#         228
  -------         ENDPROC       EEPROM_READDATAINIT
  -------         PROC          GET_MAX_VALU_24H
  -------         DO            
  D:0005H         SYMBOL        i
  X:06F2H         SYMBOL        Max_Valu_24h
  X:06F4H         SYMBOL        Max_Valu_24h_Temp
  -------         ENDDO         
  C:5CC3H         LINE#         231
  C:5CC3H         LINE#         232
  C:5CC3H         LINE#         236
  C:5CCFH         LINE#         237
  C:5CCFH         LINE#         238
  C:5CE3H         LINE#         239
  C:5CECH         LINE#         240
  C:5D05H         LINE#         241
  C:5D17H         LINE#         242
  C:5D17H         LINE#         243
  C:5D25H         LINE#         244
  C:5D25H         LINE#         245
  C:5D29H         LINE#         246
  C:5D3AH         LINE#         247
  -------         ENDPROC       GET_MAX_VALU_24H
  -------         PROC          GET_AVG_VALU_24H
  -------         DO            
BL51 BANKED LINKER/LOCATER V6.22.2.0                                                  10/31/2022  08:45:44  PAGE 64


  X:06F2H         SYMBOL        i
  X:06F3H         SYMBOL        Avg_Valu_24h
  X:06F5H         SYMBOL        Avg_Valu_24h_Temp
  X:06F7H         SYMBOL        Avg_Valu_24h_Sum
  -------         ENDDO         
  C:3E63H         LINE#         249
  C:3E63H         LINE#         250
  C:3E63H         LINE#         252
  C:3E6AH         LINE#         253
  C:3E6EH         LINE#         254
  C:3E76H         LINE#         255
  C:3E7FH         LINE#         256
  C:3E7FH         LINE#         257
  C:3E9CH         LINE#         258
  C:3E9CH         LINE#         259
  C:3EB1H         LINE#         260
  C:3EBAH         LINE#         261
  C:3ED3H         LINE#         262
  C:3EFCH         LINE#         263
  C:3F06H         LINE#         264
  C:3F42H         LINE#         266
  C:3F45H         LINE#         268
  C:3F45H         LINE#         269
  C:3F57H         LINE#         270
  C:3F57H         LINE#         271
  C:3F6CH         LINE#         272
  C:3F75H         LINE#         273
  C:3F8EH         LINE#         274
  C:3FB7H         LINE#         275
  C:3FC0H         LINE#         276
  C:3FDFH         LINE#         278
  C:3FDFH         LINE#         282
  C:3FF0H         LINE#         283
  -------         ENDPROC       GET_AVG_VALU_24H
  -------         PROC          GET_MAX_VALU_CO2_24H
  C:6E75H         LINE#         285
  C:6E75H         LINE#         286
  C:6E75H         LINE#         287
  C:6E81H         LINE#         288
  -------         ENDPROC       GET_MAX_VALU_CO2_24H
  -------         PROC          GET_AVG_VALU_CO2_24H
  C:6E82H         LINE#         290
  C:6E82H         LINE#         291
  C:6E82H         LINE#         292
  C:6E8EH         LINE#         293
  -------         ENDPROC       GET_AVG_VALU_CO2_24H
  -------         ENDMOD        EEPROM_USER

  -------         MODULE        KEY
  C:0000H         SYMBOL        _ICE_DUMMY_
  D:0080H         PUBLIC        P0
  D:0090H         PUBLIC        P1
  D:00A0H         PUBLIC        P2
  D:00B0H         PUBLIC        P3
  D:00BDH         PUBLIC        P5M1
  D:00D8H         PUBLIC        P4
  D:0084H         PUBLIC        P6M1
BL51 BANKED LINKER/LOCATER V6.22.2.0                                                  10/31/2022  08:45:44  PAGE 65


  D:00BEH         PUBLIC        P5M2
  D:00B1H         PUBLIC        P5
  D:00A7H         PUBLIC        P6
  D:0085H         PUBLIC        P6M2
  C:6F23H         PUBLIC        Get_Light_Sta
  C:6F29H         PUBLIC        Get_Bell_Sta
  D:00A8H         PUBLIC        IE
  C:6F35H         PUBLIC        Get_Color_Sta
  C:3CD0H         PUBLIC        KeyProcess
  D:00B8H         PUBLIC        IP
  C:6F41H         PUBLIC        Get_Wifi_Key_Sta
  D:0097H         PUBLIC        P5UP
  C:6F3BH         PUBLIC        Get_Co2DisMod
  D:0097H         PUBLIC        P6UP
  C:28CAH         PUBLIC        Get_KeyValue
  C:6F2FH         PUBLIC        Get_Unit_Sta
  X:06DEH         PUBLIC        KeyEvent
  D:0098H         PUBLIC        SCON
  D:0088H         PUBLIC        TCON
  D:0091H         PUBLIC        SFRS
  C:6AD7H         PUBLIC        Init_KeyPort
  D:00C0H         PUBLIC        I2C0CON
  D:00E8H         PUBLIC        I2C1CON
  D:00F8H         PUBLIC        S1CON
  D:00C8H         PUBLIC        T2CON
  D:00D0H         PUBLIC        PSW
  -------         PROC          INIT_KEYPORT
  C:6AD7H         LINE#         31
  C:6AD7H         LINE#         32
  C:6AD7H         LINE#         33
  C:6AE0H         LINE#         34
  C:6AE6H         LINE#         35
  C:6AEFH         LINE#         36
  C:6AF5H         LINE#         37
  C:6AFBH         LINE#         38
  C:6AFDH         LINE#         39
  C:6B03H         LINE#         40
  -------         ENDPROC       INIT_KEYPORT
  -------         PROC          GET_KEYVALUE
  -------         DO            
  D:0005H         SYMBOL        KeyDataTemporary
  -------         ENDDO         
  C:28CAH         LINE#         42
  C:28CAH         LINE#         43
  C:28CAH         LINE#         45
  C:28CDH         LINE#         46
  C:28D3H         LINE#         47
  C:28DDH         LINE#         48
  C:28E0H         LINE#         49
  C:28E2H         LINE#         50
  C:28E5H         LINE#         51
  C:28EDH         LINE#         52
  C:28F0H         LINE#         53
  C:28F3H         LINE#         54
  C:28F3H         LINE#         55
  C:28F9H         LINE#         56
  C:2903H         LINE#         57
BL51 BANKED LINKER/LOCATER V6.22.2.0                                                  10/31/2022  08:45:44  PAGE 66


  C:2903H         LINE#         58
  C:2909H         LINE#         59
  C:2909H         LINE#         60
  C:2911H         LINE#         61
  C:2911H         LINE#         62
  C:2914H         LINE#         63
  C:2916H         LINE#         64
  C:291CH         LINE#         65
  C:2921H         LINE#         66
  C:2927H         LINE#         67
  C:292CH         LINE#         68
  C:2930H         LINE#         69
  C:2932H         LINE#         70
  C:2937H         LINE#         71
  C:2937H         LINE#         72
  C:2939H         LINE#         73
  C:293EH         LINE#         75
  C:2949H         LINE#         76
  C:2949H         LINE#         77
  C:294FH         LINE#         78
  C:2960H         LINE#         79
  C:2960H         LINE#         80
  C:2960H         LINE#         81
  C:296AH         LINE#         82
  C:296AH         LINE#         83
  C:297AH         LINE#         84
  C:2982H         LINE#         85
  C:2982H         LINE#         86
  C:2988H         LINE#         87
  C:2995H         LINE#         88
  C:2995H         LINE#         89
  C:29A6H         LINE#         90
  C:29ACH         LINE#         91
  C:29ACH         LINE#         92
  C:29B2H         LINE#         93
  C:29B4H         LINE#         94
  C:29BAH         LINE#         95
  C:29BAH         LINE#         96
  C:29C0H         LINE#         97
  C:29C0H         LINE#         98
  C:29C5H         LINE#         99
  C:29C9H         LINE#         100
  C:29CDH         LINE#         101
  C:29D1H         LINE#         102
  C:29D5H         LINE#         103
  C:29D5H         LINE#         104
  C:29D8H         LINE#         106
  C:29D8H         LINE#         107
  C:29F4H         LINE#         108
  C:29F4H         LINE#         109
  C:29F9H         LINE#         110
  C:29FDH         LINE#         111
  C:2A02H         LINE#         112
  C:2A05H         LINE#         113
  C:2A1EH         LINE#         114
  C:2A1EH         LINE#         115
  C:2A23H         LINE#         116
BL51 BANKED LINKER/LOCATER V6.22.2.0                                                  10/31/2022  08:45:44  PAGE 67


  C:2A29H         LINE#         117
  C:2A2EH         LINE#         118
  C:2A32H         LINE#         119
  C:2A35H         LINE#         122
  C:2A35H         LINE#         123
  C:2A3AH         LINE#         125
  C:2A3EH         LINE#         126
  C:2A42H         LINE#         127
  C:2A44H         LINE#         128
  C:2A44H         LINE#         129
  C:2A44H         LINE#         130
  C:2A47H         LINE#         131
  C:2A4FH         LINE#         132
  C:2A4FH         LINE#         133
  C:2A5FH         LINE#         134
  C:2A5FH         LINE#         136
  C:2A65H         LINE#         137
  C:2A6AH         LINE#         139
  C:2A6EH         LINE#         140
  C:2A72H         LINE#         141
  C:2A76H         LINE#         142
  C:2A7AH         LINE#         143
  C:2A7FH         LINE#         144
  C:2A7FH         LINE#         146
  C:2A7FH         LINE#         147
  C:2A82H         LINE#         148
  C:2A82H         LINE#         149
  C:2A8CH         LINE#         150
  C:2A8CH         LINE#         151
  C:2A9CH         LINE#         157
  C:2AA4H         LINE#         158
  C:2AA4H         LINE#         159
  C:2AAAH         LINE#         160
  C:2AB7H         LINE#         161
  C:2AB7H         LINE#         162
  C:2AC8H         LINE#         163
  C:2ACEH         LINE#         164
  C:2ACEH         LINE#         165
  C:2AD4H         LINE#         166
  C:2AD6H         LINE#         167
  C:2ADCH         LINE#         168
  C:2ADCH         LINE#         169
  C:2AE2H         LINE#         170
  C:2AE2H         LINE#         171
  C:2AE7H         LINE#         172
  C:2AEBH         LINE#         173
  C:2AEFH         LINE#         174
  C:2AF3H         LINE#         175
  C:2AF7H         LINE#         176
  C:2AF7H         LINE#         177
  C:2AFAH         LINE#         179
  C:2AFAH         LINE#         180
  C:2B16H         LINE#         181
  C:2B16H         LINE#         182
  C:2B1CH         LINE#         183
  C:2B22H         LINE#         184
  C:2B27H         LINE#         185
BL51 BANKED LINKER/LOCATER V6.22.2.0                                                  10/31/2022  08:45:44  PAGE 68


  C:2B29H         LINE#         186
  C:2B42H         LINE#         187
  C:2B42H         LINE#         188
  C:2B48H         LINE#         189
  C:2B4EH         LINE#         190
  C:2B53H         LINE#         191
  C:2B57H         LINE#         192
  C:2B59H         LINE#         195
  C:2B59H         LINE#         197
  C:2B5EH         LINE#         199
  C:2B62H         LINE#         200
  C:2B66H         LINE#         201
  C:2B68H         LINE#         202
  C:2B68H         LINE#         203
  C:2B68H         LINE#         204
  C:2B6AH         LINE#         205
  C:2B6FH         LINE#         206
  C:2B6FH         LINE#         207
  C:2B82H         LINE#         208
  C:2B82H         LINE#         209
  C:2B88H         LINE#         210
  C:2B8DH         LINE#         212
  C:2B91H         LINE#         213
  C:2B95H         LINE#         214
  C:2B99H         LINE#         215
  C:2B9DH         LINE#         216
  C:2BA2H         LINE#         217
  C:2BA2H         LINE#         219
  C:2BA2H         LINE#         220
  C:2BA2H         LINE#         221
  C:2BA2H         LINE#         222
  C:2BA2H         LINE#         223
  C:2BA2H         LINE#         224
  C:2BA2H         LINE#         225
  C:2BAAH         LINE#         226
  C:2BAAH         LINE#         227
  C:2BB0H         LINE#         228
  C:2BB0H         LINE#         230
  -------         ENDPROC       GET_KEYVALUE
  -------         PROC          KEYPROCESS
  C:3CD0H         LINE#         232
  C:3CD0H         LINE#         233
  C:3CD0H         LINE#         234
  C:3CD3H         LINE#         235
  C:3CDBH         LINE#         236
  C:3CDBH         LINE#         237
  C:3CE4H         LINE#         238
  C:3CE4H         LINE#         239
  C:3CE6H         LINE#         240
  C:3CE8H         LINE#         241
  C:3CEEH         LINE#         242
  C:3CEEH         LINE#         243
  C:3CF4H         LINE#         244
  C:3CF6H         LINE#         245
  C:3CFCH         LINE#         246
  C:3CFCH         LINE#         247
  C:3D02H         LINE#         248
BL51 BANKED LINKER/LOCATER V6.22.2.0                                                  10/31/2022  08:45:44  PAGE 69


  C:3D04H         LINE#         249
  C:3D0AH         LINE#         250
  C:3D0AH         LINE#         251
  C:3D10H         LINE#         252
  C:3D12H         LINE#         253
  C:3D18H         LINE#         254
  C:3D18H         LINE#         255
  C:3D1DH         LINE#         256
  C:3D1DH         LINE#         257
  C:3D30H         LINE#         258
  C:3D33H         LINE#         259
  C:3D3EH         LINE#         260
  C:3D3EH         LINE#         261
  C:3D47H         LINE#         262
  C:3D47H         LINE#         263
  C:3D49H         LINE#         264
  C:3D4CH         LINE#         265
  C:3D52H         LINE#         266
  C:3D52H         LINE#         267
  C:3D58H         LINE#         268
  C:3D5BH         LINE#         269
  C:3D64H         LINE#         270
  C:3D64H         LINE#         271
  C:3D68H         LINE#         272
  C:3D68H         LINE#         274
  C:3D6BH         LINE#         275
  C:3D74H         LINE#         276
  C:3D74H         LINE#         278
  C:3D74H         LINE#         279
  C:3D7FH         LINE#         280
  C:3D7FH         LINE#         281
  C:3D88H         LINE#         282
  C:3D88H         LINE#         283
  C:3D8AH         LINE#         284
  C:3D8DH         LINE#         285
  C:3D96H         LINE#         286
  C:3D96H         LINE#         287
  C:3D9AH         LINE#         288
  C:3D9AH         LINE#         289
  C:3D9DH         LINE#         290
  C:3DA3H         LINE#         291
  C:3DA3H         LINE#         292
  C:3DACH         LINE#         293
  C:3DACH         LINE#         294
  C:3DAEH         LINE#         295
  C:3DB1H         LINE#         296
  C:3DBAH         LINE#         297
  C:3DBAH         LINE#         298
  C:3DBEH         LINE#         299
  C:3DBEH         LINE#         300
  C:3DC1H         LINE#         302
  C:3DCCH         LINE#         303
  C:3DCCH         LINE#         304
  C:3DF7H         LINE#         305
  C:3DF7H         LINE#         306
  C:3DF7H         LINE#         307
  C:3DFDH         LINE#         308
BL51 BANKED LINKER/LOCATER V6.22.2.0                                                  10/31/2022  08:45:44  PAGE 70


  C:3DFFH         LINE#         309
  C:3DFFH         LINE#         310
  C:3E05H         LINE#         311
  C:3E07H         LINE#         312
  C:3E07H         LINE#         313
  C:3E0DH         LINE#         314
  C:3E0FH         LINE#         315
  C:3E0FH         LINE#         316
  C:3E15H         LINE#         317
  C:3E17H         LINE#         318
  C:3E17H         LINE#         319
  C:3E1DH         LINE#         320
  C:3E1FH         LINE#         321
  C:3E1FH         LINE#         322
  C:3E25H         LINE#         323
  C:3E27H         LINE#         324
  C:3E27H         LINE#         325
  C:3E2DH         LINE#         326
  C:3E2FH         LINE#         327
  C:3E2FH         LINE#         328
  C:3E34H         LINE#         329
  C:3E36H         LINE#         330
  C:3E36H         LINE#         331
  C:3E36H         LINE#         332
  C:3E36H         LINE#         343
  C:3E38H         LINE#         344
  C:3E3EH         LINE#         345
  C:3E3EH         LINE#         347
  C:3E3EH         LINE#         348
  C:3E46H         LINE#         349
  C:3E46H         LINE#         350
  C:3E4FH         LINE#         351
  C:3E4FH         LINE#         352
  C:3E51H         LINE#         353
  C:3E53H         LINE#         354
  C:3E59H         LINE#         355
  C:3E59H         LINE#         356
  C:3E5DH         LINE#         357
  C:3E5DH         LINE#         359
  C:3E5DH         LINE#         361
  C:3E62H         LINE#         362
  -------         ENDPROC       KEYPROCESS
  -------         PROC          GET_LIGHT_STA
  C:6F23H         LINE#         364
  C:6F23H         LINE#         365
  C:6F23H         LINE#         366
  C:6F28H         LINE#         367
  -------         ENDPROC       GET_LIGHT_STA
  -------         PROC          GET_BELL_STA
  C:6F29H         LINE#         369
  C:6F29H         LINE#         370
  C:6F29H         LINE#         371
  C:6F2EH         LINE#         372
  -------         ENDPROC       GET_BELL_STA
  -------         PROC          GET_UNIT_STA
  C:6F2FH         LINE#         374
  C:6F2FH         LINE#         375
BL51 BANKED LINKER/LOCATER V6.22.2.0                                                  10/31/2022  08:45:44  PAGE 71


  C:6F2FH         LINE#         376
  C:6F34H         LINE#         377
  -------         ENDPROC       GET_UNIT_STA
  -------         PROC          GET_COLOR_STA
  C:6F35H         LINE#         379
  C:6F35H         LINE#         380
  C:6F35H         LINE#         381
  C:6F3AH         LINE#         382
  -------         ENDPROC       GET_COLOR_STA
  -------         PROC          GET_CO2DISMOD
  C:6F3BH         LINE#         384
  C:6F3BH         LINE#         385
  C:6F3BH         LINE#         386
  C:6F40H         LINE#         388
  -------         ENDPROC       GET_CO2DISMOD
  -------         PROC          GET_WIFI_KEY_STA
  C:6F41H         LINE#         390
  C:6F41H         LINE#         391
  C:6F41H         LINE#         392
  C:6F46H         LINE#         393
  -------         ENDPROC       GET_WIFI_KEY_STA
  -------         ENDMOD        KEY

  -------         MODULE        LCD_USER
  C:0000H         SYMBOL        _ICE_DUMMY_
  D:00FFH         PUBLIC        P1MF54
  D:0093H         PUBLIC        P6MF32
  D:0080H         PUBLIC        P0
  X:0737H         PUBLIC        disvlue
  D:00E9H         PUBLIC        P3MF54
  D:0090H         PUBLIC        P1
  D:00FCH         PUBLIC        P0MF76
  D:00EDH         PUBLIC        P4MF54
  D:00A0H         PUBLIC        P2
  D:00F1H         PUBLIC        P1MF76
  D:00B0H         PUBLIC        P3
  D:00F5H         PUBLIC        P2MF76
  D:0094H         PUBLIC        P6MF54
  D:00D8H         PUBLIC        P4
  D:00EEH         PUBLIC        P4MF76
  D:0095H         PUBLIC        P6MF76
  C:49B2H         PUBLIC        Init_Lcd
  D:00A8H         PUBLIC        IE
  C:45E4H         PUBLIC        _ShowDigit
  D:00B8H         PUBLIC        IP
  C:21FBH         PUBLIC        _LCD_Display_TempHub
  D:00FCH         PUBLIC        LCDDAT
  D:0098H         PUBLIC        SCON
  D:0088H         PUBLIC        TCON
  D:0091H         PUBLIC        SFRS
  D:00FBH         PUBLIC        LCDPTR
  C:6F47H         PUBLIC        Lcd_Display
  D:00C0H         PUBLIC        I2C0CON
  D:00E8H         PUBLIC        I2C1CON
  D:00F8H         PUBLIC        S1CON
  D:00C8H         PUBLIC        T2CON
  D:00F2H         PUBLIC        P2MF10
BL51 BANKED LINKER/LOCATER V6.22.2.0                                                  10/31/2022  08:45:44  PAGE 72


  D:00F6H         PUBLIC        P3MF10
  D:00EBH         PUBLIC        P4MF10
  D:00D0H         PUBLIC        PSW
  D:0092H         PUBLIC        P6MF10
  D:00F7H         PUBLIC        P3MF32
  -------         PROC          INIT_LCD
  C:49B2H         LINE#         4
  C:49B2H         LINE#         5
  C:49B2H         LINE#         9
  C:49BBH         LINE#         10
  C:49C4H         LINE#         11
  C:49CDH         LINE#         12
  C:49D6H         LINE#         16
  C:49DFH         LINE#         17
  C:49E8H         LINE#         18
  C:49F1H         LINE#         19
  C:49FAH         LINE#         20
  C:4A03H         LINE#         22
  C:4A0CH         LINE#         23
  C:4A15H         LINE#         24
  C:4A1EH         LINE#         25
  C:4A27H         LINE#         26
  C:4A30H         LINE#         27
  C:4A39H         LINE#         28
  C:4A42H         LINE#         29
  C:4A4BH         LINE#         30
  C:4A54H         LINE#         33
  C:4A5DH         LINE#         34
  C:4A66H         LINE#         35
  C:4A6FH         LINE#         36
  C:4A78H         LINE#         37
  C:4A81H         LINE#         38
  C:4A8AH         LINE#         39
  C:4A93H         LINE#         40
  C:4A9CH         LINE#         41
  C:4AA5H         LINE#         42
  C:4AAEH         LINE#         44
  C:4AB5H         LINE#         45
  C:4AC7H         LINE#         46
  C:4ACEH         LINE#         48
  C:4AD1H         LINE#         49
  C:4AD6H         LINE#         51
  -------         ENDPROC       INIT_LCD
  -------         PROC          LCD_DISPLAY
  C:6F47H         LINE#         53
  C:6F47H         LINE#         54
  C:6F47H         LINE#         55
  C:6F4CH         LINE#         59
  -------         ENDPROC       LCD_DISPLAY
  -------         PROC          _SHOWDIGIT
  D:0007H         SYMBOL        digitPlace
  D:0001H         SYMBOL        num
  X:0704H         SYMBOL        tempUnit
  -------         DO            
  D:0006H         SYMBOL        segABCD
  D:0005H         SYMBOL        segEFG
  -------         ENDDO         
BL51 BANKED LINKER/LOCATER V6.22.2.0                                                  10/31/2022  08:45:44  PAGE 73


  C:45E4H         LINE#         61
  C:45EBH         LINE#         62
  C:45EBH         LINE#         66
  C:45EDH         LINE#         68
  C:45EEH         LINE#         84
  C:4624H         LINE#         85
  C:4624H         LINE#         86
  C:4624H         LINE#         87
  C:4626H         LINE#         88
  C:4628H         LINE#         89
  C:462AH         LINE#         91
  C:462AH         LINE#         92
  C:462CH         LINE#         93
  C:462EH         LINE#         94
  C:4630H         LINE#         96
  C:4630H         LINE#         97
  C:4632H         LINE#         98
  C:4634H         LINE#         99
  C:4636H         LINE#         101
  C:4636H         LINE#         102
  C:4638H         LINE#         103
  C:463AH         LINE#         104
  C:463CH         LINE#         105
  C:463CH         LINE#         106
  C:463EH         LINE#         107
  C:4640H         LINE#         108
  C:4642H         LINE#         109
  C:4642H         LINE#         110
  C:4644H         LINE#         111
  C:4646H         LINE#         112
  C:4648H         LINE#         113
  C:4648H         LINE#         115
  C:464AH         LINE#         116
  C:464CH         LINE#         117
  C:464EH         LINE#         118
  C:464EH         LINE#         119
  C:4650H         LINE#         120
  C:4652H         LINE#         121
  C:4654H         LINE#         123
  C:4654H         LINE#         124
  C:4656H         LINE#         125
  C:4658H         LINE#         126
  C:465AH         LINE#         127
  C:465AH         LINE#         128
  C:465CH         LINE#         129
  C:465EH         LINE#         130
  C:465EH         LINE#         131
  C:4660H         LINE#         132
  C:4660H         LINE#         133
  C:4660H         LINE#         135
  C:4660H         LINE#         137
  C:4660H         LINE#         144
  C:4663H         LINE#         145
  C:4667H         LINE#         147
  C:4692H         LINE#         148
  C:4692H         LINE#         149
  C:4692H         LINE#         150
BL51 BANKED LINKER/LOCATER V6.22.2.0                                                  10/31/2022  08:45:44  PAGE 74


  C:4695H         LINE#         151
  C:4697H         LINE#         152
  C:4697H         LINE#         154
  C:469AH         LINE#         155
  C:469CH         LINE#         156
  C:469CH         LINE#         157
  C:469FH         LINE#         158
  C:46A1H         LINE#         159
  C:46A1H         LINE#         160
  C:46A4H         LINE#         161
  C:46A6H         LINE#         162
  C:46A6H         LINE#         163
  C:46A9H         LINE#         164
  C:46ABH         LINE#         165
  C:46ABH         LINE#         166
  C:46AEH         LINE#         167
  C:46B0H         LINE#         168
  C:46B0H         LINE#         169
  C:46B3H         LINE#         170
  C:46B5H         LINE#         171
  C:46B5H         LINE#         172
  C:46B8H         LINE#         173
  C:46BAH         LINE#         174
  C:46BAH         LINE#         175
  C:46BDH         LINE#         176
  C:46BFH         LINE#         177
  C:46BFH         LINE#         178
  C:46C2H         LINE#         179
  C:46C2H         LINE#         183
  C:46C2H         LINE#         185
  C:46C2H         LINE#         187
  C:46C2H         LINE#         191
  C:46C9H         LINE#         193
  C:46F4H         LINE#         195
  C:46F4H         LINE#         196
  C:46F4H         LINE#         197
  C:46F7H         LINE#         198
  C:46F9H         LINE#         199
  C:46F9H         LINE#         200
  C:46FCH         LINE#         201
  C:46FEH         LINE#         202
  C:46FEH         LINE#         203
  C:4701H         LINE#         204
  C:4703H         LINE#         205
  C:4703H         LINE#         206
  C:4706H         LINE#         207
  C:4708H         LINE#         208
  C:4708H         LINE#         209
  C:470BH         LINE#         210
  C:470DH         LINE#         211
  C:470DH         LINE#         212
  C:4710H         LINE#         213
  C:4712H         LINE#         214
  C:4712H         LINE#         215
  C:4715H         LINE#         216
  C:4717H         LINE#         217
  C:4717H         LINE#         218
BL51 BANKED LINKER/LOCATER V6.22.2.0                                                  10/31/2022  08:45:44  PAGE 75


  C:471AH         LINE#         219
  C:471CH         LINE#         220
  C:471CH         LINE#         221
  C:471FH         LINE#         222
  C:4721H         LINE#         223
  C:4721H         LINE#         224
  C:4724H         LINE#         225
  C:4724H         LINE#         226
  C:4724H         LINE#         228
  C:4724H         LINE#         230
  C:4724H         LINE#         238
  C:472BH         LINE#         240
  C:472BH         LINE#         280
  C:472BH         LINE#         282
  -------         ENDPROC       _SHOWDIGIT
  -------         PROC          _LCD_DISPLAY_TEMPHUB
  X:06F3H         SYMBOL        TValue
  X:06F5H         SYMBOL        HValue
  -------         DO            
  D:0003H         SYMBOL        tgw
  D:0002H         SYMBOL        tsw
  X:06F7H         SYMBOL        tbw
  X:06F8H         SYMBOL        tqw
  X:06F9H         SYMBOL        hgw
  X:06FAH         SYMBOL        hsw
  X:06FBH         SYMBOL        hbw
  X:06FCH         SYMBOL        test_value
  X:0735H         SYMBOL        test_time
  -------         ENDDO         
  C:21FBH         LINE#         285
  C:2209H         LINE#         286
  C:2209H         LINE#         290
  C:2217H         LINE#         291
  C:221CH         LINE#         292
  C:2222H         LINE#         293
  C:2222H         LINE#         294
  C:222AH         LINE#         295
  C:2233H         LINE#         296
  C:223CH         LINE#         297
  C:223EH         LINE#         298
  C:2246H         LINE#         299
  C:2246H         LINE#         300
  C:2271H         LINE#         301
  C:227AH         LINE#         302
  C:2283H         LINE#         303
  C:228CH         LINE#         305
  C:228CH         LINE#         306
  C:22A3H         LINE#         307
  C:22C0H         LINE#         308
  C:22DEH         LINE#         309
  C:22EFH         LINE#         311
  C:2301H         LINE#         312
  C:2322H         LINE#         313
  C:2336H         LINE#         316
  C:2341H         LINE#         317
  C:234AH         LINE#         318
  C:2363H         LINE#         319
BL51 BANKED LINKER/LOCATER V6.22.2.0                                                  10/31/2022  08:45:44  PAGE 76


  C:2372H         LINE#         320
  C:2372H         LINE#         321
  C:237BH         LINE#         322
  C:237BH         LINE#         323
  C:2384H         LINE#         325
  C:2390H         LINE#         326
  C:239BH         LINE#         327
  C:23AAH         LINE#         328
  C:23AAH         LINE#         329
  C:23B2H         LINE#         330
  C:23B2H         LINE#         331
  C:23BBH         LINE#         332
  C:23EBH         LINE#         333
  C:23EBH         LINE#         334
  C:23F4H         LINE#         336
  C:23FDH         LINE#         337
  C:23FDH         LINE#         338
  C:2453H         LINE#         339
  C:2453H         LINE#         340
  C:245CH         LINE#         342
  C:2465H         LINE#         343
  C:2465H         LINE#         344
  C:2495H         LINE#         345
  C:2495H         LINE#         346
  C:249EH         LINE#         348
  C:24A7H         LINE#         349
  C:24A7H         LINE#         386
  C:24B5H         LINE#         387
  C:24C1H         LINE#         388
  C:24C1H         LINE#         389
  C:24C8H         LINE#         390
  C:24CAH         LINE#         391
  C:24D6H         LINE#         392
  C:24D6H         LINE#         394
  C:24DEH         LINE#         395
  C:24E0H         LINE#         396
  C:24ECH         LINE#         397
  C:24ECH         LINE#         399
  C:24F4H         LINE#         400
  C:24F6H         LINE#         401
  C:2502H         LINE#         402
  C:2502H         LINE#         404
  C:250AH         LINE#         405
  C:2511H         LINE#         406
  C:2511H         LINE#         407
  C:2517H         LINE#         411
  C:251DH         LINE#         412
  C:251DH         LINE#         413
  C:2524H         LINE#         414
  C:2526H         LINE#         415
  C:252EH         LINE#         416
  C:252EH         LINE#         417
  C:2536H         LINE#         418
  C:2536H         LINE#         420
  C:253CH         LINE#         421
  C:253CH         LINE#         422
  C:2543H         LINE#         423
BL51 BANKED LINKER/LOCATER V6.22.2.0                                                  10/31/2022  08:45:44  PAGE 77


  C:2545H         LINE#         424
  C:254DH         LINE#         425
  C:254DH         LINE#         426
  C:2555H         LINE#         427
  C:2555H         LINE#         429
  C:255EH         LINE#         430
  C:2567H         LINE#         431
  C:2570H         LINE#         432
  C:2579H         LINE#         433
  C:2582H         LINE#         437
  C:2585H         LINE#         438
  -------         ENDPROC       _LCD_DISPLAY_TEMPHUB
  -------         ENDMOD        LCD_USER

  -------         MODULE        LED
  C:0000H         SYMBOL        _ICE_DUMMY_
  D:00B1H         PUBLIC        P0M1
  D:00B2H         PUBLIC        P0M2
  D:0080H         PUBLIC        P0
  D:0090H         PUBLIC        P1
  D:00C2H         PUBLIC        P3M1
  D:00A0H         PUBLIC        P2
  D:00C3H         PUBLIC        P3M2
  D:00B9H         PUBLIC        P4M1
  D:00B0H         PUBLIC        P3
  D:00BAH         PUBLIC        P4M2
  D:00D8H         PUBLIC        P4
  D:00EAH         PUBLIC        P3MF76
  D:00B1H         PUBLIC        P5
  D:00A8H         PUBLIC        IE
  D:00B8H         PUBLIC        IP
  C:6822H         PUBLIC        _LED_FLASH
  D:0098H         PUBLIC        SCON
  D:0088H         PUBLIC        TCON
  D:00C4H         PUBLIC        PWM2CON0
  C:314DH         PUBLIC        _RGB_Color
  D:0091H         PUBLIC        SFRS
  C:50C3H         PUBLIC        LED_Init
  D:00C0H         PUBLIC        I2C0CON
  D:00E8H         PUBLIC        I2C1CON
  D:00F8H         PUBLIC        S1CON
  D:00C8H         PUBLIC        T2CON
  C:553AH         PUBLIC        LED_Buz
  D:00D0H         PUBLIC        PSW
  D:00FBH         PUBLIC        P0MF54
  D:00ECH         PUBLIC        P4MF32
  -------         PROC          LED_INIT
  C:50C3H         LINE#         7
  C:50C3H         LINE#         8
  C:50C3H         LINE#         12
  C:50CCH         LINE#         15
  C:50D3H         LINE#         16
  C:50DCH         LINE#         17
  C:50E5H         LINE#         18
  C:50F9H         LINE#         19
  C:50FFH         LINE#         20
  C:5106H         LINE#         22
BL51 BANKED LINKER/LOCATER V6.22.2.0                                                  10/31/2022  08:45:44  PAGE 78


  C:510FH         LINE#         23
  C:5118H         LINE#         24
  C:5132H         LINE#         26
  C:513BH         LINE#         27
  C:5144H         LINE#         28
  C:515FH         LINE#         30
  C:5168H         LINE#         31
  C:5171H         LINE#         32
  C:518CH         LINE#         38
  C:5192H         LINE#         39
  C:5195H         LINE#         43
  -------         ENDPROC       LED_INIT
  -------         PROC          _LED_FLASH
  D:0007H         SYMBOL        Times
  C:6822H         LINE#         45
  C:6822H         LINE#         46
  C:6822H         LINE#         47
  C:6831H         LINE#         48
  C:6831H         LINE#         49
  C:6831H         LINE#         50
  C:683AH         LINE#         51
  C:683BH         LINE#         52
  C:683BH         LINE#         53
  C:6844H         LINE#         54
  C:6845H         LINE#         55
  C:6845H         LINE#         56
  C:684EH         LINE#         57
  C:684FH         LINE#         59
  C:684FH         LINE#         60
  C:6858H         LINE#         61
  C:6858H         LINE#         63
  C:6858H         LINE#         65
  -------         ENDPROC       _LED_FLASH
  -------         PROC          LED_BUZ
  -------         DO            
  X:073FH         SYMBOL        BuzTime
  -------         ENDDO         
  C:553AH         LINE#         67
  C:553AH         LINE#         68
  C:553AH         LINE#         70
  C:5545H         LINE#         71
  C:5545H         LINE#         72
  C:5551H         LINE#         73
  C:5551H         LINE#         74
  C:555AH         LINE#         75
  C:555BH         LINE#         76
  C:5567H         LINE#         77
  C:5567H         LINE#         78
  C:5570H         LINE#         79
  C:5571H         LINE#         80
  C:557DH         LINE#         81
  C:557DH         LINE#         82
  C:5586H         LINE#         83
  C:5587H         LINE#         85
  C:5587H         LINE#         86
  C:5590H         LINE#         87
  C:5596H         LINE#         88
BL51 BANKED LINKER/LOCATER V6.22.2.0                                                  10/31/2022  08:45:44  PAGE 79


  C:5596H         LINE#         89
  C:559CH         LINE#         90
  C:559DH         LINE#         91
  C:55A5H         LINE#         92
  C:55A5H         LINE#         93
  C:55ABH         LINE#         94
  C:55B8H         LINE#         95
  C:55B8H         LINE#         96
  C:55BEH         LINE#         97
  C:55BFH         LINE#         98
  C:55CAH         LINE#         99
  C:55CAH         LINE#         100
  C:55D0H         LINE#         101
  C:55D1H         LINE#         102
  C:55D6H         LINE#         103
  C:55D6H         LINE#         104
  C:55D6H         LINE#         106
  C:55D7H         LINE#         107
  C:55DDH         LINE#         108
  C:55DDH         LINE#         109
  C:55E2H         LINE#         110
  C:55E8H         LINE#         111
  C:55E8H         LINE#         119
  -------         ENDPROC       LED_BUZ
  -------         PROC          _RGB_COLOR
  X:06F2H         SYMBOL        RGBColor
  C:314DH         LINE#         120
  C:3152H         LINE#         121
  C:3152H         LINE#         122
  C:3155H         LINE#         123
  C:3180H         LINE#         124
  C:3180H         LINE#         125
  C:3180H         LINE#         126
  C:319AH         LINE#         127
  C:31B5H         LINE#         128
  C:31D0H         LINE#         129
  C:31D3H         LINE#         130
  C:31D3H         LINE#         131
  C:31EAH         LINE#         132
  C:3202H         LINE#         133
  C:321DH         LINE#         134
  C:3220H         LINE#         135
  C:3220H         LINE#         136
  C:323AH         LINE#         137
  C:3252H         LINE#         138
  C:326AH         LINE#         139
  C:326DH         LINE#         140
  C:326DH         LINE#         141
  C:3284H         LINE#         142
  C:329FH         LINE#         143
  C:32B7H         LINE#         144
  C:32BAH         LINE#         145
  C:32BAH         LINE#         146
  C:32D4H         LINE#         147
  C:32ECH         LINE#         148
  C:3307H         LINE#         149
  C:330AH         LINE#         150
BL51 BANKED LINKER/LOCATER V6.22.2.0                                                  10/31/2022  08:45:44  PAGE 80


  C:330AH         LINE#         151
  C:3321H         LINE#         152
  C:333CH         LINE#         153
  C:3357H         LINE#         154
  C:335AH         LINE#         155
  C:335AH         LINE#         156
  C:3374H         LINE#         157
  C:338FH         LINE#         158
  C:33AAH         LINE#         159
  C:33ACH         LINE#         160
  C:33ACH         LINE#         161
  C:33C6H         LINE#         162
  C:33E1H         LINE#         163
  C:33F9H         LINE#         164
  C:33F9H         LINE#         165
  C:33F9H         LINE#         166
  C:33F9H         LINE#         167
  C:33F9H         LINE#         168
  C:33FCH         LINE#         171
  -------         ENDPROC       _RGB_COLOR
  -------         ENDMOD        LED

  -------         MODULE        SHTC3
  C:0000H         SYMBOL        _ICE_DUMMY_
  D:00E1H         PUBLIC        P5MF32
  D:0080H         PUBLIC        P0
  D:0090H         PUBLIC        P1
  D:00A0H         PUBLIC        P2
  D:00B0H         PUBLIC        P3
  D:00BDH         PUBLIC        P5M1
  D:00D8H         PUBLIC        P4
  D:00BEH         PUBLIC        P5M2
  D:00A8H         PUBLIC        IE
  D:00B8H         PUBLIC        IP
  C:6EE6H         PUBLIC        Get_Hub_value_Inti
  C:6EC2H         PUBLIC        Get_TempValue
  C:59BAH         PUBLIC        _I2C_Read
  C:6EDDH         PUBLIC        Get_Hub_value_Mid
  C:00B2H         PUBLIC        I2C_Error
  C:6100H         PUBLIC        _I2C_Write
  D:00BDH         PUBLIC        I2C0STAT
  C:6ED4H         PUBLIC        Get_TempValueInit
  D:0098H         PUBLIC        SCON
  D:0088H         PUBLIC        TCON
  C:62D1H         PUBLIC        Init_I2C
  C:6ECBH         PUBLIC        Get_TempValueMid
  D:0091H         PUBLIC        SFRS
  X:06C5H         PUBLIC        SHTC3_Data
  D:00BCH         PUBLIC        I2C0DAT
  D:00BEH         PUBLIC        I2C0CLK
  C:00B6H         PUBLIC        Get_TempHut
  D:00C0H         PUBLIC        I2C0CON
  D:00E8H         PUBLIC        I2C1CON
  C:6F4DH         PUBLIC        Init_SHTC3
  C:5B50H         PUBLIC        _I2C_Read_Process
  D:00F8H         PUBLIC        S1CON
  D:00C8H         PUBLIC        T2CON
BL51 BANKED LINKER/LOCATER V6.22.2.0                                                  10/31/2022  08:45:44  PAGE 81


  X:06DCH         PUBLIC        Minit_Times
  X:06DDH         PUBLIC        Minit_Times_Hub
  C:6161H         PUBLIC        _I2C_Write_Process
  D:00D0H         PUBLIC        PSW
  -------         PROC          INIT_SHTC3
  C:6F4DH         LINE#         31
  C:6F4DH         LINE#         32
  C:6F4DH         LINE#         33
  C:6F52H         LINE#         34
  -------         ENDPROC       INIT_SHTC3
  -------         PROC          I2C_ERROR
  C:00B2H         LINE#         39
  C:00B2H         LINE#         40
  C:00B2H         LINE#         43
  -------         ENDPROC       I2C_ERROR
  -------         PROC          _I2C_WRITE
  D:0001H         SYMBOL        pbuf
  D:0005H         SYMBOL        len
  -------         DO            
  D:0007H         SYMBOL        u8Count
  -------         ENDDO         
  C:6100H         LINE#         50
  C:6100H         LINE#         51
  C:6100H         LINE#         55
  C:6103H         LINE#         56
  C:6106H         LINE#         57
  C:610BH         LINE#         59
  C:6112H         LINE#         60
  C:6115H         LINE#         63
  C:6118H         LINE#         64
  C:611BH         LINE#         65
  C:611EH         LINE#         66
  C:6123H         LINE#         67
  C:612AH         LINE#         68
  C:612DH         LINE#         71
  C:6134H         LINE#         72
  C:6134H         LINE#         74
  C:6139H         LINE#         75
  C:6140H         LINE#         76
  C:6143H         LINE#         77
  C:6148H         LINE#         78
  C:614FH         LINE#         79
  C:6152H         LINE#         80
  C:6155H         LINE#         83
  C:6158H         LINE#         84
  C:615BH         LINE#         85
  C:6160H         LINE#         87
  -------         ENDPROC       _I2C_WRITE
  -------         PROC          _I2C_READ
  D:0001H         SYMBOL        pbuf
  D:0004H         SYMBOL        len
  -------         DO            
  X:06F3H         SYMBOL        u8Count
  -------         ENDDO         
  C:59BAH         LINE#         89
  C:59BAH         LINE#         90
  C:59BAH         LINE#         93
BL51 BANKED LINKER/LOCATER V6.22.2.0                                                  10/31/2022  08:45:44  PAGE 82


  C:59BDH         LINE#         94
  C:59C0H         LINE#         95
  C:59C5H         LINE#         96
  C:59CCH         LINE#         97
  C:59CFH         LINE#         100
  C:59D2H         LINE#         101
  C:59D5H         LINE#         102
  C:59D8H         LINE#         103
  C:59DDH         LINE#         104
  C:59E4H         LINE#         105
  C:59E7H         LINE#         108
  C:59FBH         LINE#         109
  C:59FBH         LINE#         110
  C:59FEH         LINE#         111
  C:5A01H         LINE#         112
  C:5A06H         LINE#         114
  C:5A0DH         LINE#         115
  C:5A10H         LINE#         119
  C:5A15H         LINE#         120
  C:5A1CH         LINE#         121
  C:5A24H         LINE#         124
  C:5A27H         LINE#         125
  C:5A2AH         LINE#         126
  C:5A2FH         LINE#         127
  C:5A36H         LINE#         128
  C:5A39H         LINE#         131
  C:5A3CH         LINE#         132
  C:5A3FH         LINE#         133
  C:5A44H         LINE#         134
  -------         ENDPROC       _I2C_READ
  -------         PROC          INIT_I2C
  C:62D1H         LINE#         136
  C:62D1H         LINE#         137
  C:62D1H         LINE#         138
  C:62DAH         LINE#         139
  C:62E3H         LINE#         140
  C:62ECH         LINE#         141
  C:62F5H         LINE#         143
  C:62F8H         LINE#         145
  C:62FBH         LINE#         148
  C:62FEH         LINE#         149
  C:6302H         LINE#         150
  C:6308H         LINE#         151
  C:630CH         LINE#         152
  C:6317H         LINE#         153
  C:631DH         LINE#         154
  C:6321H         LINE#         155
  C:6328H         LINE#         156
  -------         ENDPROC       INIT_I2C
  -------         PROC          GET_TEMPHUT
  -------         DO            
  X:06C4H         SYMBOL        DelayTime
  X:06F2H         SYMBOL        Temp_const
  -------         ENDDO         
  -------         DO            
  X:06F2H         SYMBOL        Temp_const
  -------         ENDDO         
BL51 BANKED LINKER/LOCATER V6.22.2.0                                                  10/31/2022  08:45:44  PAGE 83


  C:00B6H         LINE#         159
  C:00B6H         LINE#         160
  C:00B6H         LINE#         174
  C:00BDH         LINE#         175
  C:00BDH         LINE#         176
  C:00C3H         LINE#         177
  C:00C7H         LINE#         178
  C:00D2H         LINE#         179
  C:00D8H         LINE#         180
  C:00D9H         LINE#         181
  C:00DEH         LINE#         182
  C:00DEH         LINE#         183
  C:00E4H         LINE#         184
  C:00E8H         LINE#         185
  C:00F3H         LINE#         186
  C:00F9H         LINE#         187
  C:00FAH         LINE#         188
  C:0105H         LINE#         189
  C:0105H         LINE#         191
  C:010BH         LINE#         192
  C:0118H         LINE#         193
  C:0118H         LINE#         194
  C:011AH         LINE#         195
  C:0120H         LINE#         196
  C:0120H         LINE#         197
  C:0121H         LINE#         198
  C:012AH         LINE#         199
  C:012AH         LINE#         200
  C:012EH         LINE#         201
  C:013AH         LINE#         202
  C:0140H         LINE#         203
  C:014EH         LINE#         204
  C:0160H         LINE#         205
  C:018DH         LINE#         206
  C:018DH         LINE#         207
  C:019AH         LINE#         208
  C:01A3H         LINE#         209
  C:01B5H         LINE#         210
  C:01DEH         LINE#         211
  C:01E6H         LINE#         212
  C:01E6H         LINE#         213
  C:01F1H         LINE#         214
  C:01F3H         LINE#         216
  C:01F3H         LINE#         217
  C:0207H         LINE#         218
  C:0207H         LINE#         219
  C:0218H         LINE#         220
  C:0218H         LINE#         221
  C:0249H         LINE#         222
  C:025DH         LINE#         223
  C:0260H         LINE#         224
  C:026EH         LINE#         225
  C:026EH         LINE#         226
  C:027EH         LINE#         227
  C:027EH         LINE#         228
  C:0284H         LINE#         229
  C:0287H         LINE#         230
BL51 BANKED LINKER/LOCATER V6.22.2.0                                                  10/31/2022  08:45:44  PAGE 84


  C:0292H         LINE#         231
  C:0292H         LINE#         232
  C:0298H         LINE#         233
  C:029BH         LINE#         234
  C:02A6H         LINE#         235
  C:02A6H         LINE#         236
  C:02ACH         LINE#         237
  C:02AFH         LINE#         238
  C:02BAH         LINE#         239
  C:02BAH         LINE#         240
  C:02C0H         LINE#         241
  C:02C3H         LINE#         242
  C:02CEH         LINE#         243
  C:02CEH         LINE#         244
  C:02D4H         LINE#         245
  C:02D7H         LINE#         246
  C:02E2H         LINE#         247
  C:02E2H         LINE#         248
  C:02E8H         LINE#         249
  C:02EBH         LINE#         250
  C:02F6H         LINE#         251
  C:02F6H         LINE#         252
  C:02FCH         LINE#         253
  C:02FFH         LINE#         254
  C:030AH         LINE#         255
  C:030AH         LINE#         256
  C:0310H         LINE#         257
  C:0313H         LINE#         258
  C:031EH         LINE#         259
  C:031EH         LINE#         260
  C:0324H         LINE#         261
  C:0327H         LINE#         262
  C:0332H         LINE#         263
  C:0332H         LINE#         264
  C:0338H         LINE#         265
  C:033AH         LINE#         266
  C:0345H         LINE#         267
  C:0345H         LINE#         268
  C:034BH         LINE#         269
  C:034DH         LINE#         270
  C:0358H         LINE#         271
  C:0358H         LINE#         272
  C:035EH         LINE#         273
  C:0360H         LINE#         274
  C:036BH         LINE#         275
  C:036BH         LINE#         276
  C:0371H         LINE#         277
  C:0373H         LINE#         278
  C:037EH         LINE#         279
  C:037EH         LINE#         280
  C:0384H         LINE#         281
  C:0386H         LINE#         282
  C:0391H         LINE#         283
  C:0391H         LINE#         284
  C:0397H         LINE#         285
  C:0399H         LINE#         286
  C:03A4H         LINE#         287
BL51 BANKED LINKER/LOCATER V6.22.2.0                                                  10/31/2022  08:45:44  PAGE 85


  C:03A4H         LINE#         288
  C:03AAH         LINE#         289
  C:03ACH         LINE#         290
  C:03B2H         LINE#         291
  C:03BDH         LINE#         292
  C:03BDH         LINE#         294
  C:03C3H         LINE#         295
  C:03EFH         LINE#         296
  C:042FH         LINE#         301
  C:042FH         LINE#         302
  C:0456H         LINE#         303
  C:049EH         LINE#         304
  C:04E7H         LINE#         305
  C:0530H         LINE#         306
  C:0579H         LINE#         307
  C:05C2H         LINE#         308
  C:060BH         LINE#         309
  C:0654H         LINE#         310
  C:068BH         LINE#         311
  C:068BH         LINE#         312
  C:068EH         LINE#         314
  C:068EH         LINE#         315
  C:06BAH         LINE#         316
  C:06FAH         LINE#         317
  C:0739H         LINE#         318
  C:0778H         LINE#         319
  C:07B7H         LINE#         320
  C:07F6H         LINE#         321
  C:0835H         LINE#         322
  C:0874H         LINE#         323
  C:08ABH         LINE#         324
  C:08E2H         LINE#         325
  C:0919H         LINE#         326
  C:0950H         LINE#         327
  C:0987H         LINE#         328
  C:09BDH         LINE#         329
  C:09F3H         LINE#         331
  C:0A0EH         LINE#         333
  C:0A0EH         LINE#         335
  C:0A10H         LINE#         339
  C:0A10H         LINE#         340
  C:0A35H         LINE#         341
  C:0A3AH         LINE#         342
  C:0A3AH         LINE#         344
  C:0A47H         LINE#         345
  C:0A50H         LINE#         346
  C:0A62H         LINE#         347
  C:0A8AH         LINE#         348
  C:0A90H         LINE#         349
  C:0A90H         LINE#         350
  C:0A9DH         LINE#         351
  C:0AAAH         LINE#         352
  C:0AB0H         LINE#         353
  C:0AB0H         LINE#         354
  C:0ABEH         LINE#         355
  C:0ABEH         LINE#         356
  C:0ACDH         LINE#         357
BL51 BANKED LINKER/LOCATER V6.22.2.0                                                  10/31/2022  08:45:44  PAGE 86


  C:0ACDH         LINE#         358
  C:0AE1H         LINE#         359
  C:0AE3H         LINE#         360
  C:0AFDH         LINE#         361
  C:0AFFH         LINE#         363
  C:0AFFH         LINE#         364
  C:0B0FH         LINE#         365
  C:0B0FH         LINE#         366
  C:0B2AH         LINE#         367
  C:0B2CH         LINE#         368
  C:0B50H         LINE#         370
  C:0B50H         LINE#         371
  C:0B63H         LINE#         374
  C:0B63H         LINE#         376
  C:0B64H         LINE#         377
  C:0B6CH         LINE#         378
  C:0B6CH         LINE#         379
  C:0B72H         LINE#         380
  C:0B76H         LINE#         381
  C:0B81H         LINE#         382
  C:0B86H         LINE#         383
  C:0B89H         LINE#         384
  C:0B89H         LINE#         387
  -------         ENDPROC       GET_TEMPHUT
  -------         PROC          _I2C_WRITE_PROCESS
  D:0007H         SYMBOL        u8DAT
  -------         DO            
  D:0006H         SYMBOL        u8Count
  -------         ENDDO         
  C:6161H         LINE#         388
  C:6161H         LINE#         389
  C:6161H         LINE#         392
  C:6164H         LINE#         393
  C:6167H         LINE#         394
  C:616CH         LINE#         395
  C:6173H         LINE#         396
  C:6176H         LINE#         399
  C:6179H         LINE#         400
  C:617CH         LINE#         401
  C:617FH         LINE#         402
  C:6184H         LINE#         403
  C:618BH         LINE#         404
  C:618EH         LINE#         407
  C:619AH         LINE#         408
  C:619AH         LINE#         409
  C:619CH         LINE#         410
  C:619FH         LINE#         411
  C:61A4H         LINE#         412
  C:61ABH         LINE#         413
  C:61AEH         LINE#         415
  C:61B1H         LINE#         416
  C:61B4H         LINE#         419
  C:61B7H         LINE#         420
  C:61BAH         LINE#         421
  C:61BFH         LINE#         422
  -------         ENDPROC       _I2C_WRITE_PROCESS
  -------         PROC          _I2C_READ_PROCESS
BL51 BANKED LINKER/LOCATER V6.22.2.0                                                  10/31/2022  08:45:44  PAGE 87


  D:0007H         SYMBOL        u8DAT
  -------         DO            
  D:0006H         SYMBOL        u8Count
  -------         ENDDO         
  C:5B50H         LINE#         427
  C:5B50H         LINE#         428
  C:5B50H         LINE#         431
  C:5B53H         LINE#         432
  C:5B56H         LINE#         433
  C:5B5BH         LINE#         434
  C:5B62H         LINE#         435
  C:5B65H         LINE#         438
  C:5B68H         LINE#         439
  C:5B6BH         LINE#         440
  C:5B6EH         LINE#         441
  C:5B73H         LINE#         442
  C:5B7AH         LINE#         443
  C:5B7DH         LINE#         446
  C:5B89H         LINE#         447
  C:5B89H         LINE#         448
  C:5B8CH         LINE#         449
  C:5B8FH         LINE#         450
  C:5B94H         LINE#         452
  C:5B9BH         LINE#         453
  C:5B9EH         LINE#         455
  C:5BA3H         LINE#         456
  C:5BA6H         LINE#         457
  C:5BA9H         LINE#         458
  C:5BACH         LINE#         461
  C:5BAFH         LINE#         462
  C:5BB2H         LINE#         463
  C:5BB7H         LINE#         464
  C:5BBEH         LINE#         465
  C:5BC1H         LINE#         468
  C:5BC4H         LINE#         469
  C:5BC7H         LINE#         470
  C:5BCCH         LINE#         471
  -------         ENDPROC       _I2C_READ_PROCESS
  -------         PROC          GET_TEMPVALUE
  C:6EC2H         LINE#         474
  C:6EC2H         LINE#         475
  C:6EC2H         LINE#         476
  C:6ECAH         LINE#         477
  -------         ENDPROC       GET_TEMPVALUE
  -------         PROC          GET_TEMPVALUEMID
  C:6ECBH         LINE#         480
  C:6ECBH         LINE#         481
  C:6ECBH         LINE#         482
  C:6ED3H         LINE#         483
  -------         ENDPROC       GET_TEMPVALUEMID
  -------         PROC          GET_TEMPVALUEINIT
  C:6ED4H         LINE#         485
  C:6ED4H         LINE#         486
  C:6ED4H         LINE#         487
  C:6EDCH         LINE#         488
  -------         ENDPROC       GET_TEMPVALUEINIT
  -------         PROC          GET_HUB_VALUE_MID
BL51 BANKED LINKER/LOCATER V6.22.2.0                                                  10/31/2022  08:45:44  PAGE 88


  C:6EDDH         LINE#         492
  C:6EDDH         LINE#         493
  C:6EDDH         LINE#         494
  C:6EE5H         LINE#         495
  -------         ENDPROC       GET_HUB_VALUE_MID
  -------         PROC          GET_HUB_VALUE_INTI
  C:6EE6H         LINE#         497
  C:6EE6H         LINE#         498
  C:6EE6H         LINE#         499
  C:6EEEH         LINE#         500
  -------         ENDPROC       GET_HUB_VALUE_INTI
  -------         ENDMOD        SHTC3

  -------         MODULE        TIMER0
  C:0000H         SYMBOL        _ICE_DUMMY_
  D:0080H         PUBLIC        P0
  D:0090H         PUBLIC        P1
  D:00A0H         PUBLIC        P2
  D:00B0H         PUBLIC        P3
  C:3FF1H         PUBLIC        Timer0_ISR
  D:00D8H         PUBLIC        P4
  X:0699H         PUBLIC        Temp_Delt
  B:00A8H.7       PUBLIC        EA
  C:6F65H         PUBLIC        Get_OneCircleSaveFlag
  X:069BH         PUBLIC        Hub_Delt
  D:00A8H         PUBLIC        IE
  C:6F5FH         PUBLIC        Get_SaveAddr
  X:069DH         PUBLIC        OutTempIsHigh
  D:00B8H         PUBLIC        IP
  C:6EEFH         PUBLIC        GET_NtcTEMP
  X:069EH         PUBLIC        Delt_last
  C:6CDFH         PUBLIC        Timer0_Init
  D:0098H         PUBLIC        SCON
  D:0089H         PUBLIC        TMOD
  D:0088H         PUBLIC        TCON
  C:6F59H         PUBLIC        Clr__TempHutStartFlag
  D:0091H         PUBLIC        SFRS
  B:0088H.5       PUBLIC        TF0
  D:008CH         PUBLIC        TH0
  C:6F71H         PUBLIC        _Set_Save_AddrP
  D:00C0H         PUBLIC        I2C0CON
  D:008AH         PUBLIC        TL0
  D:00E8H         PUBLIC        I2C1CON
  C:3915H         PUBLIC        Time_Process
  X:06A0H         PUBLIC        Sys_TimePar
  C:6F53H         PUBLIC        Get_TempHutStartFlag
  C:6F6BH         PUBLIC        _Set_OneCircle_Flag
  D:00F8H         PUBLIC        S1CON
  D:00C8H         PUBLIC        T2CON
  D:008EH         PUBLIC        CKCON
  D:00D0H         PUBLIC        PSW
  -------         PROC          TIMER0_INIT
  C:6CDFH         LINE#         59
  C:6CDFH         LINE#         60
  C:6CDFH         LINE#         61
  C:6CE5H         LINE#         62
  C:6CEAH         LINE#         63
BL51 BANKED LINKER/LOCATER V6.22.2.0                                                  10/31/2022  08:45:44  PAGE 89


  C:6CECH         LINE#         64
  C:6CEFH         LINE#         65
  C:6CF2H         LINE#         66
  C:6CF5H         LINE#         67
  C:6CF7H         LINE#         68
  C:6CFAH         LINE#         69
  -------         ENDPROC       TIMER0_INIT
  -------         PROC          TIMER0_ISR
  C:3FF1H         LINE#         73
  C:3FF9H         LINE#         75
  C:3FFBH         LINE#         76
  C:3FFEH         LINE#         77
  C:4001H         LINE#         78
  C:4004H         LINE#         79
  C:4006H         LINE#         80
  C:400CH         LINE#         81
  C:4010H         LINE#         82
  C:4014H         LINE#         83
  C:4018H         LINE#         84
  C:401CH         LINE#         85
  C:4020H         LINE#         86
  C:4024H         LINE#         87
  C:4028H         LINE#         88
  C:4036H         LINE#         89
  C:4044H         LINE#         90
  C:4052H         LINE#         91
  C:405FH         LINE#         92
  C:405FH         LINE#         93
  C:4065H         LINE#         94
  C:406AH         LINE#         95
  C:406AH         LINE#         96
  C:4077H         LINE#         97
  C:4077H         LINE#         98
  C:407DH         LINE#         99
  C:4082H         LINE#         100
  C:4082H         LINE#         101
  C:408FH         LINE#         102
  C:408FH         LINE#         103
  C:4095H         LINE#         104
  C:409AH         LINE#         105
  C:409AH         LINE#         106
  C:40A7H         LINE#         107
  C:40A7H         LINE#         108
  C:40ADH         LINE#         109
  C:40B2H         LINE#         110
  C:40B2H         LINE#         111
  C:40BFH         LINE#         112
  C:40BFH         LINE#         113
  C:40C5H         LINE#         114
  C:40CAH         LINE#         115
  C:40CAH         LINE#         116
  C:40D7H         LINE#         117
  C:40D7H         LINE#         118
  C:40DDH         LINE#         119
  C:40E2H         LINE#         120
  C:40E2H         LINE#         121
  C:40EFH         LINE#         122
BL51 BANKED LINKER/LOCATER V6.22.2.0                                                  10/31/2022  08:45:44  PAGE 90


  C:40EFH         LINE#         123
  C:40F5H         LINE#         124
  C:40FAH         LINE#         125
  C:40FAH         LINE#         126
  C:4107H         LINE#         127
  C:4107H         LINE#         128
  C:410DH         LINE#         129
  C:4112H         LINE#         130
  C:4112H         LINE#         131
  C:4121H         LINE#         132
  C:4121H         LINE#         133
  C:4127H         LINE#         134
  C:412EH         LINE#         135
  C:412EH         LINE#         136
  C:413DH         LINE#         137
  C:413DH         LINE#         138
  C:4143H         LINE#         139
  C:414AH         LINE#         140
  C:414AH         LINE#         141
  C:4159H         LINE#         142
  C:4159H         LINE#         143
  C:415FH         LINE#         144
  C:4166H         LINE#         145
  C:4166H         LINE#         147
  C:4168H         LINE#         148
  -------         ENDPROC       TIMER0_ISR
  -------         PROC          TIME_PROCESS
  -------         DO            
  X:0696H         SYMBOL        time_cyc
  X:0697H         SYMBOL        Temp_Delt_last
  -------         ENDDO         
  C:3915H         LINE#         150
  C:3915H         LINE#         151
  C:3915H         LINE#         152
  C:391DH         LINE#         153
  C:391DH         LINE#         154
  C:3925H         LINE#         155
  C:3925H         LINE#         156
  C:3928H         LINE#         158
  C:3928H         LINE#         160
  C:392BH         LINE#         161
  C:3930H         LINE#         163
  C:3931H         LINE#         164
  C:3939H         LINE#         165
  C:3939H         LINE#         168
  C:393CH         LINE#         170
  C:3942H         LINE#         171
  C:3947H         LINE#         172
  C:3948H         LINE#         173
  C:3950H         LINE#         174
  C:3950H         LINE#         176
  C:3955H         LINE#         177
  C:395AH         LINE#         179
  C:3962H         LINE#         180
  C:3962H         LINE#         181
  C:3968H         LINE#         182
  C:3968H         LINE#         183
BL51 BANKED LINKER/LOCATER V6.22.2.0                                                  10/31/2022  08:45:44  PAGE 91


  C:396DH         LINE#         184
  C:3972H         LINE#         185
  C:3972H         LINE#         186
  C:3979H         LINE#         187
  C:397CH         LINE#         188
  C:397FH         LINE#         189
  C:3986H         LINE#         190
  C:3990H         LINE#         191
  C:3990H         LINE#         192
  C:3996H         LINE#         193
  C:399AH         LINE#         194
  C:399FH         LINE#         195
  C:399FH         LINE#         196
  C:39A4H         LINE#         197
  C:39A4H         LINE#         199
  C:39A9H         LINE#         200
  C:39AAH         LINE#         203
  C:39B5H         LINE#         204
  C:39B5H         LINE#         211
  C:39C0H         LINE#         212
  C:39C6H         LINE#         217
  C:39CAH         LINE#         218
  C:39D7H         LINE#         219
  C:39D7H         LINE#         220
  C:39DBH         LINE#         221
  C:39E1H         LINE#         222
  C:39E7H         LINE#         223
  C:39EDH         LINE#         224
  C:3A02H         LINE#         225
  C:3A02H         LINE#         226
  C:3A21H         LINE#         227
  C:3A21H         LINE#         229
  C:3A36H         LINE#         230
  C:3A36H         LINE#         231
  C:3A55H         LINE#         232
  C:3A57H         LINE#         233
  C:3A76H         LINE#         235
  C:3A81H         LINE#         236
  C:3A81H         LINE#         237
  C:3A90H         LINE#         238
  C:3A92H         LINE#         239
  C:3A98H         LINE#         240
  C:3A98H         LINE#         241
  C:3AACH         LINE#         242
  C:3AACH         LINE#         243
  C:3AB9H         LINE#         244
  C:3AC7H         LINE#         245
  C:3AC9H         LINE#         246
  C:3AE4H         LINE#         248
  C:3AE9H         LINE#         249
  C:3AE9H         LINE#         258
  C:3AE9H         LINE#         259
  C:3AE9H         LINE#         263
  C:3AE9H         LINE#         264
  C:3AF9H         LINE#         265
  C:3B09H         LINE#         266
  C:3B0EH         LINE#         267
BL51 BANKED LINKER/LOCATER V6.22.2.0                                                  10/31/2022  08:45:44  PAGE 92


  C:3B13H         LINE#         268
  C:3B13H         LINE#         271
  C:3B20H         LINE#         272
  C:3B20H         LINE#         273
  C:3B22H         LINE#         274
  C:3B25H         LINE#         276
  C:3B25H         LINE#         278
  C:3B28H         LINE#         280
  C:3B2DH         LINE#         281
  C:3B2EH         LINE#         282
  C:3B36H         LINE#         283
  C:3B36H         LINE#         285
  C:3B37H         LINE#         286
  C:3B37H         LINE#         288
  -------         ENDPROC       TIME_PROCESS
  -------         PROC          GET_TEMPHUTSTARTFLAG
  C:6F53H         LINE#         292
  C:6F53H         LINE#         293
  C:6F53H         LINE#         294
  C:6F58H         LINE#         295
  -------         ENDPROC       GET_TEMPHUTSTARTFLAG
  -------         PROC          CLR__TEMPHUTSTARTFLAG
  C:6F59H         LINE#         297
  C:6F59H         LINE#         298
  C:6F59H         LINE#         299
  C:6F5EH         LINE#         300
  -------         ENDPROC       CLR__TEMPHUTSTARTFLAG
  -------         PROC          GET_SAVEADDR
  C:6F5FH         LINE#         302
  C:6F5FH         LINE#         303
  C:6F5FH         LINE#         304
  C:6F64H         LINE#         305
  -------         ENDPROC       GET_SAVEADDR
  -------         PROC          GET_ONECIRCLESAVEFLAG
  C:6F65H         LINE#         307
  C:6F65H         LINE#         308
  C:6F65H         LINE#         309
  C:6F6AH         LINE#         310
  -------         ENDPROC       GET_ONECIRCLESAVEFLAG
  -------         PROC          _SET_ONECIRCLE_FLAG
  D:0007H         SYMBOL        Flag
  C:6F6BH         LINE#         312
  C:6F6BH         LINE#         313
  C:6F6BH         LINE#         314
  C:6F70H         LINE#         315
  -------         ENDPROC       _SET_ONECIRCLE_FLAG
  -------         PROC          _SET_SAVE_ADDRP
  D:0007H         SYMBOL        Addr
  C:6F71H         LINE#         317
  C:6F71H         LINE#         318
  C:6F71H         LINE#         319
  C:6F76H         LINE#         320
  -------         ENDPROC       _SET_SAVE_ADDRP
  -------         PROC          GET_NTCTEMP
  C:6EEFH         LINE#         322
  C:6EEFH         LINE#         323
  C:6EEFH         LINE#         324
BL51 BANKED LINKER/LOCATER V6.22.2.0                                                  10/31/2022  08:45:44  PAGE 93


  C:6EF7H         LINE#         325
  -------         ENDPROC       GET_NTCTEMP
  -------         ENDMOD        TIMER0

  -------         MODULE        UART1_USER
  C:0000H         SYMBOL        _ICE_DUMMY_
  D:0080H         PUBLIC        P0
  D:00B5H         PUBLIC        P2M1
  D:0090H         PUBLIC        P1
  D:00B6H         PUBLIC        P2M2
  D:00A0H         PUBLIC        P2
  D:00B0H         PUBLIC        P3
  D:00D8H         PUBLIC        P4
  D:009CH         PUBLIC        EIE1
  B:00A8H.7       PUBLIC        EA
  D:00A8H         PUBLIC        IE
  D:00B8H         PUBLIC        IP
  C:672CH         PUBLIC        _Uart1senddata
  D:0098H         PUBLIC        SCON
  D:0088H         PUBLIC        TCON
  D:0091H         PUBLIC        SFRS
  D:00C0H         PUBLIC        I2C0CON
  D:00E8H         PUBLIC        I2C1CON
  D:00F8H         PUBLIC        S1CON
  C:66A4H         PUBLIC        Init_UART1
  D:00C8H         PUBLIC        T2CON
  D:00D0H         PUBLIC        PSW
  D:00F3H         PUBLIC        P2MF32
  -------         PROC          INIT_UART1
  C:66A4H         LINE#         4
  C:66A4H         LINE#         5
  C:66A4H         LINE#         6
  C:66ADH         LINE#         7
  C:66B6H         LINE#         8
  C:66BFH         LINE#         9
  C:66C8H         LINE#         11
  C:66E1H         LINE#         12
  C:66E7H         LINE#         13
  C:66E9H         LINE#         14
  -------         ENDPROC       INIT_UART1
  -------         PROC          _UART1SENDDATA
  X:06F2H         SYMBOL        Data
  X:06F5H         SYMBOL        len
  -------         DO            
  X:06F6H         SYMBOL        i
  -------         ENDDO         
  C:672CH         LINE#         17
  C:673AH         LINE#         18
  C:673AH         LINE#         20
  C:6749H         LINE#         21
  C:6749H         LINE#         22
  C:6762H         LINE#         24
  C:676AH         LINE#         25
  -------         ENDPROC       _UART1SENDDATA
  -------         ENDMOD        UART1_USER

  -------         MODULE        UART2_USER
BL51 BANKED LINKER/LOCATER V6.22.2.0                                                  10/31/2022  08:45:44  PAGE 94


  C:0000H         SYMBOL        _ICE_DUMMY_
  D:00F4H         PUBLIC        P2MF54
  D:0080H         PUBLIC        P0
  D:00B5H         PUBLIC        P2M1
  D:0090H         PUBLIC        P1
  D:00B6H         PUBLIC        P2M2
  D:00A0H         PUBLIC        P2
  D:00B0H         PUBLIC        P3
  D:00D8H         PUBLIC        P4
  B:00A8H.7       PUBLIC        EA
  D:00A8H         PUBLIC        IE
  D:00B8H         PUBLIC        IP
  C:676BH         PUBLIC        _Uart2senddata
  D:0098H         PUBLIC        SCON
  D:0088H         PUBLIC        TCON
  D:0091H         PUBLIC        SFRS
  D:00C0H         PUBLIC        I2C0CON
  D:00E8H         PUBLIC        I2C1CON
  D:00DDH         PUBLIC        SC0IE
  D:00F8H         PUBLIC        S1CON
  C:66EAH         PUBLIC        Init_UART2
  D:00C8H         PUBLIC        T2CON
  D:00D0H         PUBLIC        PSW
  -------         PROC          INIT_UART2
  C:66EAH         LINE#         3
  C:66EAH         LINE#         4
  C:66EAH         LINE#         5
  C:66F3H         LINE#         6
  C:66FCH         LINE#         7
  C:6705H         LINE#         8
  C:670EH         LINE#         10
  C:6723H         LINE#         11
  C:6729H         LINE#         12
  C:672BH         LINE#         14
  -------         ENDPROC       INIT_UART2
  -------         PROC          _UART2SENDDATA
  X:072CH         SYMBOL        Data
  X:072FH         SYMBOL        len
  -------         DO            
  X:0730H         SYMBOL        i
  -------         ENDDO         
  C:676BH         LINE#         16
  C:6779H         LINE#         17
  C:6779H         LINE#         19
  C:6788H         LINE#         20
  C:6788H         LINE#         21
  C:67A1H         LINE#         23
  C:67A9H         LINE#         24
  -------         ENDPROC       _UART2SENDDATA
  -------         ENDMOD        UART2_USER

  -------         MODULE        UART3_USER
  C:0000H         SYMBOL        _ICE_DUMMY_
  D:00B3H         PUBLIC        P1M1
  D:0080H         PUBLIC        P0
  D:00B4H         PUBLIC        P1M2
  D:0090H         PUBLIC        P1
BL51 BANKED LINKER/LOCATER V6.22.2.0                                                  10/31/2022  08:45:44  PAGE 95


  D:00A0H         PUBLIC        P2
  D:00B0H         PUBLIC        P3
  D:00D8H         PUBLIC        P4
  D:00A8H         PUBLIC        IE
  D:00B8H         PUBLIC        IP
  D:0098H         PUBLIC        SCON
  D:0088H         PUBLIC        TCON
  D:0091H         PUBLIC        SFRS
  D:00C0H         PUBLIC        I2C0CON
  D:00E8H         PUBLIC        I2C1CON
  D:00F8H         PUBLIC        S1CON
  D:00C8H         PUBLIC        T2CON
  C:67E8H         PUBLIC        Init_UART3
  D:00FDH         PUBLIC        P1MF10
  D:00FEH         PUBLIC        P1MF32
  D:00D0H         PUBLIC        PSW
  C:6E67H         PUBLIC        _putchar
  -------         PROC          INIT_UART3
  C:67E8H         LINE#         3
  C:67E8H         LINE#         4
  C:67E8H         LINE#         5
  C:67F1H         LINE#         6
  C:67FAH         LINE#         7
  C:6803H         LINE#         8
  C:680CH         LINE#         9
  C:6821H         LINE#         15
  -------         ENDPROC       INIT_UART3
  -------         PROC          _PUTCHAR
  X:0740H         SYMBOL        c
  C:6E67H         LINE#         18
  C:6E6CH         LINE#         19
  C:6E6CH         LINE#         21
  C:6E6FH         LINE#         23
  C:6E74H         LINE#         24
  -------         ENDPROC       _PUTCHAR
  -------         ENDMOD        UART3_USER

  -------         MODULE        WDT
  C:0000H         SYMBOL        _ICE_DUMMY_
  D:0080H         PUBLIC        P0
  D:0090H         PUBLIC        P1
  D:00A0H         PUBLIC        P2
  D:00B0H         PUBLIC        P3
  D:00D8H         PUBLIC        P4
  B:00A8H.7       PUBLIC        EA
  D:00A8H         PUBLIC        IE
  D:00C7H         PUBLIC        TA
  D:00B8H         PUBLIC        IP
  D:0098H         PUBLIC        SCON
  D:0088H         PUBLIC        TCON
  D:0091H         PUBLIC        SFRS
  D:00C0H         PUBLIC        I2C0CON
  D:00E8H         PUBLIC        I2C1CON
  D:00F8H         PUBLIC        S1CON
  C:688FH         PUBLIC        FEED_WDT
  C:67AAH         PUBLIC        WDT_Init
  D:00C8H         PUBLIC        T2CON
BL51 BANKED LINKER/LOCATER V6.22.2.0                                                  10/31/2022  08:45:44  PAGE 96


  D:00D0H         PUBLIC        PSW
  D:00AAH         PUBLIC        WDCON
  -------         PROC          WDT_INIT
  C:67AAH         LINE#         2
  C:67AAH         LINE#         3
  C:67AAH         LINE#         4
  C:67B3H         LINE#         10
  C:67C9H         LINE#         11
  C:67DEH         LINE#         12
  C:67E7H         LINE#         13
  -------         ENDPROC       WDT_INIT
  -------         PROC          FEED_WDT
  C:688FH         LINE#         15
  C:688FH         LINE#         16
  C:688FH         LINE#         17
  C:68A5H         LINE#         18
  C:68BAH         LINE#         19
  C:68C3H         LINE#         20
  -------         ENDPROC       FEED_WDT
  -------         ENDMOD        WDT

  -------         MODULE        WIFI
  C:0000H         SYMBOL        _ICE_DUMMY_
  D:0080H         PUBLIC        P0
  D:0090H         PUBLIC        P1
  D:00A0H         PUBLIC        P2
  D:00B0H         PUBLIC        P3
  D:00D8H         PUBLIC        P4
  C:6E8FH         PUBLIC        Init_Wifi
  D:00A8H         PUBLIC        IE
  D:00B8H         PUBLIC        IP
  B:0090H.3       PUBLIC        P13
  D:0098H         PUBLIC        SCON
  D:0088H         PUBLIC        TCON
  D:00C0H         PUBLIC        I2C0CON
  D:00E8H         PUBLIC        I2C1CON
  D:00F8H         PUBLIC        S1CON
  D:00C8H         PUBLIC        T2CON
  D:00D0H         PUBLIC        PSW
  -------         PROC          INIT_WIFI
  C:6E8FH         LINE#         45
  C:6E8FH         LINE#         46
  C:6E8FH         LINE#         47
  C:6E98H         LINE#         48
  C:6E9AH         LINE#         49
  -------         ENDPROC       INIT_WIFI
  -------         ENDMOD        WIFI

  -------         MODULE        CRC16
  C:0000H         SYMBOL        _ICE_DUMMY_
  D:0080H         PUBLIC        P0
  D:0090H         PUBLIC        P1
  D:00A0H         PUBLIC        P2
  D:00B0H         PUBLIC        P3
  D:00D8H         PUBLIC        P4
  D:00A8H         PUBLIC        IE
  C:6481H         PUBLIC        _CRC16MODBUS
BL51 BANKED LINKER/LOCATER V6.22.2.0                                                  10/31/2022  08:45:44  PAGE 97


  D:00B8H         PUBLIC        IP
  D:0098H         PUBLIC        SCON
  D:0088H         PUBLIC        TCON
  X:0000H         PUBLIC        aucCRCHi
  X:0100H         PUBLIC        aucCRCLo
  D:00C0H         PUBLIC        I2C0CON
  D:00E8H         PUBLIC        I2C1CON
  D:00F8H         PUBLIC        S1CON
  D:00C8H         PUBLIC        T2CON
  D:00D0H         PUBLIC        PSW
  -------         PROC          _CRC16MODBUS
  X:06F7H         SYMBOL        pucFrame
  X:06FAH         SYMBOL        usLen
  -------         DO            
  D:0007H         SYMBOL        ucCRCHi
  D:0005H         SYMBOL        ucCRCLo
  D:0002H         SYMBOL        iIndex
  -------         ENDDO         
  C:6481H         LINE#         48
  C:648FH         LINE#         49
  C:648FH         LINE#         50
  C:6491H         LINE#         51
  C:6493H         LINE#         53
  C:649DH         LINE#         54
  C:649DH         LINE#         55
  C:64B4H         LINE#         56
  C:64C0H         LINE#         57
  C:64CCH         LINE#         58
  C:64CEH         LINE#         59
  C:64D2H         LINE#         60
  -------         ENDPROC       _CRC16MODBUS
  -------         ENDMOD        CRC16

  -------         MODULE        BC3602
  C:0000H         SYMBOL        _ICE_DUMMY_
  D:0080H         PUBLIC        P0
  D:0090H         PUBLIC        P1
  D:00A0H         PUBLIC        P2
  C:6F77H         PUBLIC        Get_RF_Mode
  D:00B0H         PUBLIC        P3
  D:00D8H         PUBLIC        P4
  B:00A8H.7       PUBLIC        EA
  C:6EF8H         PUBLIC        _SpiWriteStrobeCMD
  C:68C4H         PUBLIC        RFWriteSyncword
  C:69C2H         PUBLIC        RFCalibration
  C:472CH         PUBLIC        BC3602_Config
  D:00A8H         PUBLIC        IE
  C:63D7H         PUBLIC        BC3602_RF_Process
  C:5F65H         PUBLIC        RF_Init
  X:0399H         PUBLIC        Frequency_REGS_TALBE
  X:03A1H         PUBLIC        PACKET_REGS_TALBE
  D:00B8H         PUBLIC        IP
  C:5C49H         PUBLIC        _KEY_BC3602
  C:6E9BH         PUBLIC        _SpiReadRegCMD
  C:65C2H         PUBLIC        _ReadFIFO
  C:6D90H         PUBLIC        RFGetClrRFIrq
  X:03B7H         PUBLIC        mRFSync
BL51 BANKED LINKER/LOCATER V6.22.2.0                                                  10/31/2022  08:45:44  PAGE 98


  X:03BBH         PUBLIC        COMMON_REGS_TALBE
  X:03BDH         PUBLIC        BANK0_REGS_TALBE
  X:03D1H         PUBLIC        BANK1_REGS_TALBE
  C:6E47H         PUBLIC        RFXtalReady
  X:03D9H         PUBLIC        FCF_REGS_TALBE
  X:03FFH         PUBLIC        BANK2_REGS_TALBE
  X:0415H         PUBLIC        BC3602_SYNCWORD
  B:0090H.0       PUBLIC        P10
  C:0026H         PUBLIC        _SpiWriteRegCMD
  C:6573H         PUBLIC        _WriteFIFO
  B:0090H.3       PUBLIC        P13
  D:0098H         PUBLIC        SCON
  D:0088H         PUBLIC        TCON
  C:6524H         PUBLIC        RFWriteFreq
  D:0091H         PUBLIC        SFRS
  C:665CH         PUBLIC        _RFWriteBuf
  X:0419H         PUBLIC        RF_RXFIFO
  X:0439H         PUBLIC        RF_TXFIFO
  C:6A20H         PUBLIC        PinInterrupt_ISR
  D:00C0H         PUBLIC        I2C0CON
  D:00E8H         PUBLIC        I2C1CON
  C:6C48H         PUBLIC        _RFSetPower
  X:0459H         PUBLIC        TxPowerValue
  C:6D30H         PUBLIC        _DATA_Process
  D:00CAH         PUBLIC        PIF
  C:6859H         PUBLIC        ResetLvRF
  C:4F06H         PUBLIC        _SimpleFIFO_RX_Process
  X:0472H         PUBLIC        IRQIO_REGS_TALBE
  C:5257H         PUBLIC        _SimpleFIFO_TX_Process
  D:00F8H         PUBLIC        S1CON
  X:047CH         PUBLIC        RF_IRQ
  D:00C8H         PUBLIC        T2CON
  X:047DH         PUBLIC        Mflag
  C:5BCDH         PUBLIC        RF_Finished_Process
  X:0482H         PUBLIC        DM_REGS_TALBE
  C:5487H         PUBLIC        RFSetDRPram
  X:0498H         PUBLIC        CBPF_REGS_TALBE
  D:00FEH         PUBLIC        P1MF32
  D:00D0H         PUBLIC        PSW
  X:049EH         PUBLIC        RF_RXFIFOSAVE
  C:69F1H         PUBLIC        LircCalibration
  -------         PROC          _SPIWRITEREGCMD
  D:0007H         SYMBOL        CMD
  X:06FCH         SYMBOL        DATA
  C:0026H         LINE#         36
  C:002BH         LINE#         37
  C:002BH         LINE#         39
  C:002DH         LINE#         40
  C:0030H         LINE#         41
  C:0038H         LINE#         43
  C:003AH         LINE#         44
  -------         ENDPROC       _SPIWRITEREGCMD
  -------         PROC          _SPIREADREGCMD
  D:0007H         SYMBOL        CMD
  -------         DO            
  D:0007H         SYMBOL        ReadDATA
  -------         ENDDO         
BL51 BANKED LINKER/LOCATER V6.22.2.0                                                  10/31/2022  08:45:44  PAGE 99


  C:6E9BH         LINE#         51
  C:6E9BH         LINE#         52
  C:6E9BH         LINE#         55
  C:6E9DH         LINE#         56
  C:6EA0H         LINE#         57
  C:6EA3H         LINE#         59
  C:6EA5H         LINE#         60
  C:6EA5H         LINE#         61
  -------         ENDPROC       _SPIREADREGCMD
  -------         PROC          _SPIWRITESTROBECMD
  D:0007H         SYMBOL        CMD
  C:6EF8H         LINE#         68
  C:6EF8H         LINE#         69
  C:6EF8H         LINE#         71
  C:6EFAH         LINE#         72
  C:6EFDH         LINE#         74
  C:6EFFH         LINE#         75
  -------         ENDPROC       _SPIWRITESTROBECMD
  -------         PROC          RFWRITEFREQ
  -------         DO            
  X:06F2H         SYMBOL        a
  -------         ENDDO         
  C:6524H         LINE#         84
  C:6524H         LINE#         85
  C:6524H         LINE#         86
  C:6529H         LINE#         87
  C:6533H         LINE#         88
  C:653AH         LINE#         89
  C:653FH         LINE#         91
  C:6572H         LINE#         92
  -------         ENDPROC       RFWRITEFREQ
  -------         PROC          RFSETDRPRAM
  -------         DO            
  X:06F2H         SYMBOL        a
  -------         ENDDO         
  C:5487H         LINE#         99
  C:5487H         LINE#         100
  C:5487H         LINE#         101
  C:548CH         LINE#         102
  C:5491H         LINE#         103
  C:54C4H         LINE#         104
  C:54C9H         LINE#         105
  C:54FCH         LINE#         106
  C:5501H         LINE#         107
  C:5534H         LINE#         108
  C:5539H         LINE#         109
  -------         ENDPROC       RFSETDRPRAM
  -------         PROC          _RFSETPOWER
  D:0007H         SYMBOL        band_sel
  D:0005H         SYMBOL        power
  C:6C48H         LINE#         111
  C:6C48H         LINE#         112
  C:6C48H         LINE#         113
  C:6C67H         LINE#         114
  -------         ENDPROC       _RFSETPOWER
  -------         PROC          RFXTALREADY
  -------         DO            
BL51 BANKED LINKER/LOCATER V6.22.2.0                                                  10/31/2022  08:45:44  PAGE 100


  D:0007H         SYMBOL        a
  -------         ENDDO         
  C:6E47H         LINE#         121
  C:6E47H         LINE#         122
  C:6E47H         LINE#         123
  C:6E49H         LINE#         124
  C:6E4CH         LINE#         125
  C:6E4CH         LINE#         126
  C:6E51H         LINE#         127
  C:6E55H         LINE#         128
  C:6E57H         LINE#         129
  -------         ENDPROC       RFXTALREADY
  -------         PROC          RFCALIBRATION
  -------         DO            
  X:06F2H         SYMBOL        a
  -------         ENDDO         
  C:69C2H         LINE#         136
  C:69C2H         LINE#         137
  C:69C2H         LINE#         138
  C:69C7H         LINE#         139
  C:69D1H         LINE#         140
  C:69D6H         LINE#         141
  C:69DBH         LINE#         142
  C:69E1H         LINE#         143
  C:69E1H         LINE#         144
  C:69EBH         LINE#         145
  C:69EEH         LINE#         146
  C:69F0H         LINE#         147
  -------         ENDPROC       RFCALIBRATION
  -------         PROC          LIRCCALIBRATION
  -------         DO            
  X:06F2H         SYMBOL        a
  -------         ENDDO         
  C:69F1H         LINE#         155
  C:69F1H         LINE#         156
  C:69F1H         LINE#         157
  C:69F6H         LINE#         158
  C:6A00H         LINE#         159
  C:6A05H         LINE#         160
  C:6A0AH         LINE#         161
  C:6A10H         LINE#         162
  C:6A10H         LINE#         163
  C:6A1AH         LINE#         164
  C:6A1DH         LINE#         165
  C:6A1FH         LINE#         166
  -------         ENDPROC       LIRCCALIBRATION
  -------         PROC          RFGETCLRRFIRQ
  -------         DO            
  X:06FBH         SYMBOL        irq
  -------         ENDDO         
  C:6D90H         LINE#         173
  C:6D90H         LINE#         174
  C:6D90H         LINE#         177
  C:6D9BH         LINE#         178
  C:6DA0H         LINE#         180
  C:6DA5H         LINE#         181
  -------         ENDPROC       RFGETCLRRFIRQ
BL51 BANKED LINKER/LOCATER V6.22.2.0                                                  10/31/2022  08:45:44  PAGE 101


  -------         PROC          RF_INIT
  C:5F65H         LINE#         183
  C:5F65H         LINE#         184
  C:5F65H         LINE#         186
  C:5F68H         LINE#         187
  C:5F6DH         LINE#         189
  C:5F70H         LINE#         190
  C:5F75H         LINE#         193
  C:5F77H         LINE#         195
  C:5F7DH         LINE#         196
  C:5F86H         LINE#         197
  C:5F8FH         LINE#         198
  C:5FA1H         LINE#         200
  C:5FA4H         LINE#         201
  C:5FA7H         LINE#         203
  C:5FAAH         LINE#         204
  C:5FADH         LINE#         205
  C:5FB4H         LINE#         207
  C:5FB6H         LINE#         208
  C:5FB9H         LINE#         209
  C:5FBCH         LINE#         210
  C:5FBFH         LINE#         211
  C:5FC2H         LINE#         212
  C:5FC7H         LINE#         213
  C:5FCDH         LINE#         214
  -------         ENDPROC       RF_INIT
  -------         PROC          RESETLVRF
  -------         DO            
  X:06F2H         SYMBOL        a
  -------         ENDDO         
  C:6859H         LINE#         221
  C:6859H         LINE#         222
  C:6859H         LINE#         223
  C:685EH         LINE#         224
  C:6864H         LINE#         225
  C:6864H         LINE#         226
  C:686EH         LINE#         227
  C:6873H         LINE#         228
  C:6878H         LINE#         229
  C:6882H         LINE#         230
  C:6887H         LINE#         231
  C:688CH         LINE#         232
  C:688EH         LINE#         233
  -------         ENDPROC       RESETLVRF
  -------         PROC          BC3602_CONFIG
  -------         DO            
  X:06F2H         SYMBOL        a
  -------         ENDDO         
  C:472CH         LINE#         241
  C:472CH         LINE#         242
  C:472CH         LINE#         243
  C:4731H         LINE#         245
  C:4760H         LINE#         247
  C:4793H         LINE#         249
  C:47C6H         LINE#         252
  C:47CBH         LINE#         253
  C:47FEH         LINE#         255
BL51 BANKED LINKER/LOCATER V6.22.2.0                                                  10/31/2022  08:45:44  PAGE 102


  C:4803H         LINE#         256
  C:4836H         LINE#         258
  C:483BH         LINE#         259
  C:486EH         LINE#         260
  C:4873H         LINE#         261
  -------         ENDPROC       BC3602_CONFIG
  -------         PROC          _RFWRITEBUF
  D:0007H         SYMBOL        CMD
  X:06F2H         SYMBOL        length
  X:06F3H         SYMBOL        Data
  -------         DO            
  X:06F6H         SYMBOL        a
  -------         ENDDO         
  C:665CH         LINE#         269
  C:666AH         LINE#         270
  C:666AH         LINE#         273
  C:666CH         LINE#         274
  C:666FH         LINE#         275
  C:66A1H         LINE#         277
  C:66A3H         LINE#         278
  -------         ENDPROC       _RFWRITEBUF
  -------         PROC          RFWRITESYNCWORD
  -------         DO            
  D:0007H         SYMBOL        a
  -------         ENDDO         
  C:68C4H         LINE#         286
  C:68C4H         LINE#         287
  C:68C4H         LINE#         328
  C:68D0H         LINE#         329
  C:68EBH         LINE#         330
  C:68F8H         LINE#         334
  -------         ENDPROC       RFWRITESYNCWORD
  -------         PROC          _DATA_PROCESS
  D:0001H         SYMBOL        FIFO
  C:6D30H         LINE#         341
  C:6D30H         LINE#         342
  C:6D30H         LINE#         343
  C:6D37H         LINE#         344
  C:6D3CH         LINE#         348
  C:6D43H         LINE#         349
  C:6D48H         LINE#         350
  -------         ENDPROC       _DATA_PROCESS
  -------         PROC          _KEY_BC3602
  D:0007H         SYMBOL        key_status
  C:5C49H         LINE#         357
  C:5C49H         LINE#         358
  C:5C49H         LINE#         359
  C:5C58H         LINE#         360
  C:5C58H         LINE#         361
  C:5C58H         LINE#         362
  C:5C5EH         LINE#         363
  C:5C66H         LINE#         364
  C:5C6BH         LINE#         365
  C:5C71H         LINE#         366
  C:5C72H         LINE#         368
  C:5C72H         LINE#         369
  C:5C78H         LINE#         370
BL51 BANKED LINKER/LOCATER V6.22.2.0                                                  10/31/2022  08:45:44  PAGE 103


  C:5C81H         LINE#         371
  C:5C86H         LINE#         372
  C:5C8CH         LINE#         373
  C:5C8DH         LINE#         375
  C:5C8DH         LINE#         376
  C:5C93H         LINE#         377
  C:5C9CH         LINE#         378
  C:5CA1H         LINE#         379
  C:5CA7H         LINE#         380
  C:5CA8H         LINE#         382
  C:5CA8H         LINE#         383
  C:5CAEH         LINE#         384
  C:5CB7H         LINE#         385
  C:5CBCH         LINE#         386
  C:5CC2H         LINE#         387
  C:5CC2H         LINE#         389
  C:5CC2H         LINE#         390
  C:5CC2H         LINE#         391
  C:5CC2H         LINE#         392
  -------         ENDPROC       _KEY_BC3602
  -------         PROC          PININTERRUPT_ISR
  C:6A20H         LINE#         394
  C:6A2DH         LINE#         396
  C:6A2FH         LINE#         398
  C:6A32H         LINE#         399
  C:6A38H         LINE#         400
  C:6A38H         LINE#         401
  C:6A38H         LINE#         402
  C:6A3FH         LINE#         403
  C:6A3FH         LINE#         404
  C:6A3FH         LINE#         405
  C:6A3FH         LINE#         406
  C:6A3FH         LINE#         407
  C:6A42H         LINE#         409
  C:6A44H         LINE#         410
  -------         ENDPROC       PININTERRUPT_ISR
  -------         PROC          GET_RF_MODE
  C:6F77H         LINE#         412
  C:6F77H         LINE#         413
  C:6F77H         LINE#         414
  C:6F7CH         LINE#         415
  -------         ENDPROC       GET_RF_MODE
  -------         PROC          _WRITEFIFO
  X:06FBH         SYMBOL        rf_fifo
  X:06FEH         SYMBOL        payload_length
  -------         DO            
  X:06FFH         SYMBOL        a
  -------         ENDDO         
  C:6573H         LINE#         424
  C:6581H         LINE#         425
  C:6581H         LINE#         426
  C:6584H         LINE#         427
  C:6586H         LINE#         428
  C:658BH         LINE#         429
  C:659BH         LINE#         430
  C:659BH         LINE#         431
  C:65ADH         LINE#         432
BL51 BANKED LINKER/LOCATER V6.22.2.0                                                  10/31/2022  08:45:44  PAGE 104


  C:65B7H         LINE#         433
  C:65BFH         LINE#         434
  C:65C1H         LINE#         435
  -------         ENDPROC       _WRITEFIFO
  -------         PROC          _READFIFO
  X:06FBH         SYMBOL        rf_fifo
  X:06FEH         SYMBOL        length
  -------         DO            
  X:06FFH         SYMBOL        a
  -------         ENDDO         
  C:65C2H         LINE#         442
  C:65D0H         LINE#         443
  C:65D0H         LINE#         444
  C:65D3H         LINE#         445
  C:65D5H         LINE#         446
  C:65DAH         LINE#         447
  C:65EAH         LINE#         448
  C:65EAH         LINE#         449
  C:65FCH         LINE#         450
  C:6606H         LINE#         451
  C:660EH         LINE#         452
  C:6610H         LINE#         453
  -------         ENDPROC       _READFIFO
  -------         PROC          _SIMPLEFIFO_TX_PROCESS
  X:06F2H         SYMBOL        step
  X:06F5H         SYMBOL        IRQ
  X:06F8H         SYMBOL        Mode
  C:5257H         LINE#         464
  C:5262H         LINE#         465
  C:5262H         LINE#         466
  C:5279H         LINE#         467
  C:5279H         LINE#         468
  C:5279H         LINE#         469
  C:527EH         LINE#         470
  C:5281H         LINE#         472
  C:5288H         LINE#         474
  C:528DH         LINE#         475
  C:5294H         LINE#         476
  C:529FH         LINE#         478
  C:52A4H         LINE#         479
  C:52B4H         LINE#         480
  C:52C4H         LINE#         481
  C:52C5H         LINE#         483
  C:52C5H         LINE#         484
  C:52C8H         LINE#         485
  C:52DAH         LINE#         487
  C:52E1H         LINE#         488
  C:52E1H         LINE#         489
  C:52E6H         LINE#         490
  C:52F6H         LINE#         491
  C:5305H         LINE#         492
  C:5305H         LINE#         493
  C:5306H         LINE#         495
  C:5306H         LINE#         496
  C:5315H         LINE#         497
  C:5315H         LINE#         498
  C:5315H         LINE#         499
BL51 BANKED LINKER/LOCATER V6.22.2.0                                                  10/31/2022  08:45:44  PAGE 105


  -------         ENDPROC       _SIMPLEFIFO_TX_PROCESS
  -------         PROC          _SIMPLEFIFO_RX_PROCESS
  X:06F2H         SYMBOL        step
  X:06F5H         SYMBOL        IRQ
  X:06F8H         SYMBOL        Mode
  -------         DO            
  D:0007H         SYMBOL        a
  -------         ENDDO         
  C:4F06H         LINE#         507
  C:4F11H         LINE#         508
  C:4F11H         LINE#         511
  C:4F1DH         LINE#         512
  C:4F1DH         LINE#         513
  C:4F1DH         LINE#         514
  C:4F22H         LINE#         515
  C:4F25H         LINE#         517
  C:4F2CH         LINE#         519
  C:4F38H         LINE#         520
  C:4F47H         LINE#         522
  C:4F4CH         LINE#         523
  C:4F53H         LINE#         525
  C:4F58H         LINE#         526
  C:4F68H         LINE#         527
  C:4F78H         LINE#         528
  C:4F79H         LINE#         530
  C:4F79H         LINE#         531
  C:4F7CH         LINE#         532
  C:4F8EH         LINE#         534
  C:4F97H         LINE#         535
  C:4F97H         LINE#         536
  C:4F9BH         LINE#         537
  C:4FA6H         LINE#         538
  C:4FB9H         LINE#         539
  C:4FBEH         LINE#         540
  C:4FCEH         LINE#         541
  C:4FDDH         LINE#         542
  C:4FDDH         LINE#         543
  C:4FDEH         LINE#         545
  C:4FDEH         LINE#         546
  C:4FEDH         LINE#         547
  C:4FEDH         LINE#         548
  C:4FEDH         LINE#         549
  -------         ENDPROC       _SIMPLEFIFO_RX_PROCESS
  -------         PROC          RF_FINISHED_PROCESS
  C:5BCDH         LINE#         559
  C:5BCDH         LINE#         560
  C:5BCDH         LINE#         561
  C:5BD4H         LINE#         562
  C:5BD4H         LINE#         563
  C:5BD6H         LINE#         564
  C:5BDCH         LINE#         566
  C:5BEEH         LINE#         567
  C:5BEEH         LINE#         568
  C:5BEEH         LINE#         570
  C:5BF3H         LINE#         571
  C:5BF5H         LINE#         572
  C:5BF5H         LINE#         574
BL51 BANKED LINKER/LOCATER V6.22.2.0                                                  10/31/2022  08:45:44  PAGE 106


  C:5BFAH         LINE#         575
  C:5BFCH         LINE#         576
  C:5BFCH         LINE#         578
  C:5C01H         LINE#         579
  C:5C03H         LINE#         580
  C:5C03H         LINE#         582
  C:5C08H         LINE#         583
  C:5C08H         LINE#         584
  C:5C08H         LINE#         585
  C:5C08H         LINE#         586
  C:5C08H         LINE#         588
  C:5C08H         LINE#         590
  C:5C10H         LINE#         591
  C:5C10H         LINE#         592
  C:5C12H         LINE#         593
  C:5C18H         LINE#         594
  C:5C1FH         LINE#         595
  C:5C1FH         LINE#         599
  C:5C1FH         LINE#         601
  C:5C1FH         LINE#         602
  C:5C31H         LINE#         603
  C:5C31H         LINE#         604
  C:5C31H         LINE#         606
  C:5C36H         LINE#         607
  C:5C37H         LINE#         608
  C:5C37H         LINE#         610
  C:5C3CH         LINE#         611
  C:5C3DH         LINE#         612
  C:5C3DH         LINE#         614
  C:5C42H         LINE#         615
  C:5C43H         LINE#         616
  C:5C43H         LINE#         618
  C:5C48H         LINE#         619
  C:5C48H         LINE#         620
  C:5C48H         LINE#         621
  C:5C48H         LINE#         622
  C:5C48H         LINE#         623
  C:5C48H         LINE#         624
  C:5C48H         LINE#         625
  -------         ENDPROC       RF_FINISHED_PROCESS
  -------         PROC          BC3602_RF_PROCESS
  C:63D7H         LINE#         628
  C:63D7H         LINE#         629
  C:63D7H         LINE#         631
  C:63DFH         LINE#         632
  C:6400H         LINE#         634
  C:6408H         LINE#         635
  C:6429H         LINE#         636
  C:642CH         LINE#         638
  -------         ENDPROC       BC3602_RF_PROCESS
  -------         ENDMOD        BC3602

  -------         MODULE        BC3602_SPI
  C:0000H         SYMBOL        _ICE_DUMMY_
  D:0080H         PUBLIC        P0
  D:0090H         PUBLIC        P1
  D:00A0H         PUBLIC        P2
BL51 BANKED LINKER/LOCATER V6.22.2.0                                                  10/31/2022  08:45:44  PAGE 107


  D:00B0H         PUBLIC        P3
  D:00D8H         PUBLIC        P4
  D:00A8H         PUBLIC        IE
  D:00B8H         PUBLIC        IP
  C:692EH         PUBLIC        SpiRead
  B:0080H.0       PUBLIC        P00
  B:0090H.0       PUBLIC        P10
  B:0080H.1       PUBLIC        P01
  D:0098H         PUBLIC        SCON
  D:0088H         PUBLIC        TCON
  C:68F9H         PUBLIC        _SpiWrite
  D:00C0H         PUBLIC        I2C0CON
  D:00E8H         PUBLIC        I2C1CON
  C:6B2FH         PUBLIC        _Set_RFSDIO_Dir
  D:00F8H         PUBLIC        S1CON
  D:00C8H         PUBLIC        T2CON
  C:6CA5H         PUBLIC        BC3602_SPI_IOConfig
  D:00D0H         PUBLIC        PSW
  -------         PROC          BC3602_SPI_IOCONFIG
  C:6CA5H         LINE#         3
  C:6CA5H         LINE#         4
  C:6CA5H         LINE#         6
  C:6CAEH         LINE#         7
  C:6CB3H         LINE#         8
  C:6CBCH         LINE#         9
  C:6CBEH         LINE#         10
  C:6CC0H         LINE#         11
  C:6CC2H         LINE#         12
  -------         ENDPROC       BC3602_SPI_IOCONFIG
  -------         PROC          _SET_RFSDIO_DIR
  X:0701H         SYMBOL        Director
  C:6B2FH         LINE#         14
  C:6B34H         LINE#         15
  C:6B34H         LINE#         16
  C:6B36H         LINE#         17
  C:6B36H         LINE#         18
  C:6B3EH         LINE#         20
  C:6B3FH         LINE#         21
  C:6B47H         LINE#         22
  C:6B47H         LINE#         23
  C:6B4FH         LINE#         24
  C:6B57H         LINE#         25
  C:6B57H         LINE#         26
  -------         ENDPROC       _SET_RFSDIO_DIR
  -------         PROC          _SPIWRITE
  X:0700H         SYMBOL        SIMD
  -------         DO            
  D:0007H         SYMBOL        cnt
  -------         ENDDO         
  C:68F9H         LINE#         28
  C:68FEH         LINE#         29
  C:68FEH         LINE#         33
  C:6903H         LINE#         34
  C:690FH         LINE#         35
  C:690FH         LINE#         37
  C:6911H         LINE#         38
  C:6919H         LINE#         39
BL51 BANKED LINKER/LOCATER V6.22.2.0                                                  10/31/2022  08:45:44  PAGE 108


  C:691DH         LINE#         41
  C:691FH         LINE#         42
  C:6926H         LINE#         44
  C:6928H         LINE#         45
  C:692BH         LINE#         47
  C:692DH         LINE#         49
  -------         ENDPROC       _SPIWRITE
  -------         PROC          SPIREAD
  -------         DO            
  D:0003H         SYMBOL        cnt
  X:0700H         SYMBOL        SIMD
  -------         ENDDO         
  C:692EH         LINE#         57
  C:692EH         LINE#         58
  C:692EH         LINE#         60
  C:6933H         LINE#         62
  C:6938H         LINE#         64
  C:693AH         LINE#         65
  C:6946H         LINE#         66
  C:6946H         LINE#         67
  C:694EH         LINE#         69
  C:6950H         LINE#         70
  C:6953H         LINE#         71
  C:6957H         LINE#         73
  C:6959H         LINE#         74
  C:695CH         LINE#         75
  C:6961H         LINE#         77
  -------         ENDPROC       SPIREAD
  -------         ENDMOD        BC3602_SPI

  -------         MODULE        ?C?FPADD
  C:0B91H         PUBLIC        ?C?FPADD
  C:0B8DH         PUBLIC        ?C?FPSUB
  -------         ENDMOD        ?C?FPADD

  -------         MODULE        ?C?FPMUL
  C:0C82H         PUBLIC        ?C?FPMUL
  -------         ENDMOD        ?C?FPMUL

  -------         MODULE        ?C?FPDIV
  C:0D8BH         PUBLIC        ?C?FPDIV
  -------         ENDMOD        ?C?FPDIV

  -------         MODULE        ?C?FCAST
  C:0E32H         PUBLIC        ?C?FCASTC
  C:0E2DH         PUBLIC        ?C?FCASTI
  C:0E28H         PUBLIC        ?C?FCASTL
  -------         ENDMOD        ?C?FCAST

  -------         MODULE        ?C?CASTF
  C:0E66H         PUBLIC        ?C?CASTF
  -------         ENDMOD        ?C?CASTF

  -------         MODULE        ?C?COPY
  C:0FB7H         PUBLIC        ?C?COPY
  -------         ENDMOD        ?C?COPY

BL51 BANKED LINKER/LOCATER V6.22.2.0                                                  10/31/2022  08:45:44  PAGE 109


  -------         MODULE        ?C?CLDPTR
  C:0FDDH         PUBLIC        ?C?CLDPTR
  -------         ENDMOD        ?C?CLDPTR

  -------         MODULE        ?C?CLDOPTR
  C:0FF6H         PUBLIC        ?C?CLDOPTR
  -------         ENDMOD        ?C?CLDOPTR

  -------         MODULE        ?C?CILDPTR
  C:1023H         PUBLIC        ?C?CILDPTR
  -------         ENDMOD        ?C?CILDPTR

  -------         MODULE        ?C?CSTPTR
  C:1045H         PUBLIC        ?C?CSTPTR
  -------         ENDMOD        ?C?CSTPTR

  -------         MODULE        ?C?CSTOPTR
  C:1057H         PUBLIC        ?C?CSTOPTR
  -------         ENDMOD        ?C?CSTOPTR

  -------         MODULE        ?C?IMUL
  C:1079H         PUBLIC        ?C?IMUL
  -------         ENDMOD        ?C?IMUL

  -------         MODULE        ?C?UIDIV
  C:108BH         PUBLIC        ?C?UIDIV
  -------         ENDMOD        ?C?UIDIV

  -------         MODULE        ?C?IILDX
  C:10E0H         PUBLIC        ?C?IILDX
  -------         ENDMOD        ?C?IILDX

  -------         MODULE        ?C?ILDIX
  C:10F6H         PUBLIC        ?C?ILDIX
  -------         ENDMOD        ?C?ILDIX

  -------         MODULE        ?C?LMUL
  C:110CH         PUBLIC        ?C?LMUL
  -------         ENDMOD        ?C?LMUL

  -------         MODULE        ?C?ULDIV
  C:1197H         PUBLIC        ?C?ULDIV
  -------         ENDMOD        ?C?ULDIV

  -------         MODULE        ?C?LNEG
  C:1229H         PUBLIC        ?C?LNEG
  -------         ENDMOD        ?C?LNEG

  -------         MODULE        ?C?ULSHR
  C:1237H         PUBLIC        ?C?ULSHR
  -------         ENDMOD        ?C?ULSHR

  -------         MODULE        ?C?LSTXDATA
  C:124AH         PUBLIC        ?C?LSTXDATA
  -------         ENDMOD        ?C?LSTXDATA

  -------         MODULE        ?C?LSTKXDATA
BL51 BANKED LINKER/LOCATER V6.22.2.0                                                  10/31/2022  08:45:44  PAGE 110


  C:1256H         PUBLIC        ?C?LSTKXDATA
  -------         ENDMOD        ?C?LSTKXDATA

  -------         MODULE        ?C?CCASE
  C:1287H         PUBLIC        ?C?CCASE
  -------         ENDMOD        ?C?CCASE

  -------         MODULE        ?C?MEMSET
  C:12ADH         PUBLIC        ?C?MEMSET
  -------         ENDMOD        ?C?MEMSET

Program Size: data=12.7 xdata=1857 code=28541
LINK/LOCATE RUN COMPLETE.  0 WARNING(S),  0 ERROR(S)
